Component: ARM Compiler 5.06 update 6 (build 750) Tool: armlink [4d35ed]

==============================================================================

Section Cross References

    stdperiphdriver.o(i.ADC_DeInit) refers to stdperiphdriver.o(i.RCC_APB2PeriphResetCmd) for RCC_APB2PeriphResetCmd
    stdperiphdriver.o(i.CAN_DeInit) refers to stdperiphdriver.o(i.RCC_APB1PeriphResetCmd) for RCC_APB1PeriphResetCmd
    stdperiphdriver.o(i.CAN_GetITStatus) refers to stdperiphdriver.o(i.CheckITStatus) for CheckITStatus
    stdperiphdriver.o(i.CEC_DeInit) refers to stdperiphdriver.o(i.RCC_APB1PeriphResetCmd) for RCC_APB1PeriphResetCmd
    stdperiphdriver.o(i.CRS_DeInit) refers to stdperiphdriver.o(i.RCC_APB1PeriphResetCmd) for RCC_APB1PeriphResetCmd
    stdperiphdriver.o(i.DAC_DeInit) refers to stdperiphdriver.o(i.RCC_APB1PeriphResetCmd) for RCC_APB1PeriphResetCmd
    stdperiphdriver.o(i.FLASH_EraseAllPages) refers to stdperiphdriver.o(i.FLASH_WaitForLastOperation) for FLASH_WaitForLastOperation
    stdperiphdriver.o(i.FLASH_ErasePage) refers to stdperiphdriver.o(i.FLASH_WaitForLastOperation) for FLASH_WaitForLastOperation
    stdperiphdriver.o(i.FLASH_OB_BOOT0Config) refers to stdperiphdriver.o(i.FLASH_WaitForLastOperation) for FLASH_WaitForLastOperation
    stdperiphdriver.o(i.FLASH_OB_BOOT0SWConfig) refers to stdperiphdriver.o(i.FLASH_WaitForLastOperation) for FLASH_WaitForLastOperation
    stdperiphdriver.o(i.FLASH_OB_BOOTConfig) refers to stdperiphdriver.o(i.FLASH_WaitForLastOperation) for FLASH_WaitForLastOperation
    stdperiphdriver.o(i.FLASH_OB_EnableWRP) refers to stdperiphdriver.o(i.FLASH_WaitForLastOperation) for FLASH_WaitForLastOperation
    stdperiphdriver.o(i.FLASH_OB_Erase) refers to stdperiphdriver.o(i.FLASH_OB_GetRDP) for FLASH_OB_GetRDP
    stdperiphdriver.o(i.FLASH_OB_Erase) refers to stdperiphdriver.o(i.FLASH_WaitForLastOperation) for FLASH_WaitForLastOperation
    stdperiphdriver.o(i.FLASH_OB_ProgramData) refers to stdperiphdriver.o(i.FLASH_WaitForLastOperation) for FLASH_WaitForLastOperation
    stdperiphdriver.o(i.FLASH_OB_RDPConfig) refers to stdperiphdriver.o(i.FLASH_WaitForLastOperation) for FLASH_WaitForLastOperation
    stdperiphdriver.o(i.FLASH_OB_SRAMParityConfig) refers to stdperiphdriver.o(i.FLASH_WaitForLastOperation) for FLASH_WaitForLastOperation
    stdperiphdriver.o(i.FLASH_OB_UserConfig) refers to stdperiphdriver.o(i.FLASH_WaitForLastOperation) for FLASH_WaitForLastOperation
    stdperiphdriver.o(i.FLASH_OB_VDDAConfig) refers to stdperiphdriver.o(i.FLASH_WaitForLastOperation) for FLASH_WaitForLastOperation
    stdperiphdriver.o(i.FLASH_OB_WriteUser) refers to stdperiphdriver.o(i.FLASH_WaitForLastOperation) for FLASH_WaitForLastOperation
    stdperiphdriver.o(i.FLASH_ProgramHalfWord) refers to stdperiphdriver.o(i.FLASH_WaitForLastOperation) for FLASH_WaitForLastOperation
    stdperiphdriver.o(i.FLASH_ProgramWord) refers to stdperiphdriver.o(i.FLASH_WaitForLastOperation) for FLASH_WaitForLastOperation
    stdperiphdriver.o(i.FLASH_WaitForLastOperation) refers to stdperiphdriver.o(i.FLASH_GetStatus) for FLASH_GetStatus
    stdperiphdriver.o(i.GPIO_DeInit) refers to stdperiphdriver.o(i.RCC_AHBPeriphResetCmd) for RCC_AHBPeriphResetCmd
    stdperiphdriver.o(i.I2C_DeInit) refers to stdperiphdriver.o(i.RCC_APB1PeriphResetCmd) for RCC_APB1PeriphResetCmd
    stdperiphdriver.o(i.I2S_Init) refers to stdperiphdriver.o(i.RCC_GetClocksFreq) for RCC_GetClocksFreq
    stdperiphdriver.o(i.I2S_Init) refers to uidiv.o(.text) for __aeabi_uidivmod
    stdperiphdriver.o(i.PWR_DeInit) refers to stdperiphdriver.o(i.RCC_APB1PeriphResetCmd) for RCC_APB1PeriphResetCmd
    stdperiphdriver.o(i.RCC_GetClocksFreq) refers to uidiv.o(.text) for __aeabi_uidivmod
    stdperiphdriver.o(i.RCC_GetClocksFreq) refers to stdperiphdriver.o(.data) for APBAHBPrescTable
    stdperiphdriver.o(i.RCC_WaitForHSEStartUp) refers to stdperiphdriver.o(i.RCC_GetFlagStatus) for RCC_GetFlagStatus
    stdperiphdriver.o(i.RTC_DeInit) refers to stdperiphdriver.o(i.RTC_EnterInitMode) for RTC_EnterInitMode
    stdperiphdriver.o(i.RTC_DeInit) refers to stdperiphdriver.o(i.RTC_WaitForSynchro) for RTC_WaitForSynchro
    stdperiphdriver.o(i.RTC_GetAlarm) refers to stdperiphdriver.o(i.RTC_Bcd2ToByte) for RTC_Bcd2ToByte
    stdperiphdriver.o(i.RTC_GetDate) refers to stdperiphdriver.o(i.RTC_Bcd2ToByte) for RTC_Bcd2ToByte
    stdperiphdriver.o(i.RTC_GetTime) refers to stdperiphdriver.o(i.RTC_Bcd2ToByte) for RTC_Bcd2ToByte
    stdperiphdriver.o(i.RTC_GetTimeStamp) refers to stdperiphdriver.o(i.RTC_Bcd2ToByte) for RTC_Bcd2ToByte
    stdperiphdriver.o(i.RTC_Init) refers to stdperiphdriver.o(i.RTC_EnterInitMode) for RTC_EnterInitMode
    stdperiphdriver.o(i.RTC_Init) refers to stdperiphdriver.o(i.RTC_ExitInitMode) for RTC_ExitInitMode
    stdperiphdriver.o(i.RTC_RefClockCmd) refers to stdperiphdriver.o(i.RTC_EnterInitMode) for RTC_EnterInitMode
    stdperiphdriver.o(i.RTC_RefClockCmd) refers to stdperiphdriver.o(i.RTC_ExitInitMode) for RTC_ExitInitMode
    stdperiphdriver.o(i.RTC_SetAlarm) refers to stdperiphdriver.o(i.RTC_Bcd2ToByte) for RTC_Bcd2ToByte
    stdperiphdriver.o(i.RTC_SetAlarm) refers to stdperiphdriver.o(i.RTC_ByteToBcd2) for RTC_ByteToBcd2
    stdperiphdriver.o(i.RTC_SetDate) refers to stdperiphdriver.o(i.RTC_Bcd2ToByte) for RTC_Bcd2ToByte
    stdperiphdriver.o(i.RTC_SetDate) refers to stdperiphdriver.o(i.RTC_ByteToBcd2) for RTC_ByteToBcd2
    stdperiphdriver.o(i.RTC_SetDate) refers to stdperiphdriver.o(i.RTC_EnterInitMode) for RTC_EnterInitMode
    stdperiphdriver.o(i.RTC_SetDate) refers to stdperiphdriver.o(i.RTC_ExitInitMode) for RTC_ExitInitMode
    stdperiphdriver.o(i.RTC_SetDate) refers to stdperiphdriver.o(i.RTC_WaitForSynchro) for RTC_WaitForSynchro
    stdperiphdriver.o(i.RTC_SetTime) refers to stdperiphdriver.o(i.RTC_Bcd2ToByte) for RTC_Bcd2ToByte
    stdperiphdriver.o(i.RTC_SetTime) refers to stdperiphdriver.o(i.RTC_ByteToBcd2) for RTC_ByteToBcd2
    stdperiphdriver.o(i.RTC_SetTime) refers to stdperiphdriver.o(i.RTC_EnterInitMode) for RTC_EnterInitMode
    stdperiphdriver.o(i.RTC_SetTime) refers to stdperiphdriver.o(i.RTC_ExitInitMode) for RTC_ExitInitMode
    stdperiphdriver.o(i.RTC_SetTime) refers to stdperiphdriver.o(i.RTC_WaitForSynchro) for RTC_WaitForSynchro
    stdperiphdriver.o(i.RTC_SynchroShiftConfig) refers to stdperiphdriver.o(i.RTC_WaitForSynchro) for RTC_WaitForSynchro
    stdperiphdriver.o(i.SPI_I2S_DeInit) refers to stdperiphdriver.o(i.RCC_APB2PeriphResetCmd) for RCC_APB2PeriphResetCmd
    stdperiphdriver.o(i.SPI_I2S_DeInit) refers to stdperiphdriver.o(i.RCC_APB1PeriphResetCmd) for RCC_APB1PeriphResetCmd
    stdperiphdriver.o(i.TIM_DeInit) refers to stdperiphdriver.o(i.RCC_APB2PeriphResetCmd) for RCC_APB2PeriphResetCmd
    stdperiphdriver.o(i.TIM_DeInit) refers to stdperiphdriver.o(i.RCC_APB1PeriphResetCmd) for RCC_APB1PeriphResetCmd
    stdperiphdriver.o(i.TIM_ETRClockMode1Config) refers to stdperiphdriver.o(i.TIM_ETRConfig) for TIM_ETRConfig
    stdperiphdriver.o(i.TIM_ETRClockMode2Config) refers to stdperiphdriver.o(i.TIM_ETRConfig) for TIM_ETRConfig
    stdperiphdriver.o(i.TIM_ICInit) refers to stdperiphdriver.o(i.TI1_Config) for TI1_Config
    stdperiphdriver.o(i.TIM_ICInit) refers to stdperiphdriver.o(i.TIM_SetIC1Prescaler) for TIM_SetIC1Prescaler
    stdperiphdriver.o(i.TIM_ICInit) refers to stdperiphdriver.o(i.TI2_Config) for TI2_Config
    stdperiphdriver.o(i.TIM_ICInit) refers to stdperiphdriver.o(i.TIM_SetIC2Prescaler) for TIM_SetIC2Prescaler
    stdperiphdriver.o(i.TIM_ICInit) refers to stdperiphdriver.o(i.TI3_Config) for TI3_Config
    stdperiphdriver.o(i.TIM_ICInit) refers to stdperiphdriver.o(i.TIM_SetIC3Prescaler) for TIM_SetIC3Prescaler
    stdperiphdriver.o(i.TIM_ICInit) refers to stdperiphdriver.o(i.TI4_Config) for TI4_Config
    stdperiphdriver.o(i.TIM_ICInit) refers to stdperiphdriver.o(i.TIM_SetIC4Prescaler) for TIM_SetIC4Prescaler
    stdperiphdriver.o(i.TIM_ITRxExternalClockConfig) refers to stdperiphdriver.o(i.TIM_SelectInputTrigger) for TIM_SelectInputTrigger
    stdperiphdriver.o(i.TIM_PWMIConfig) refers to stdperiphdriver.o(i.TI1_Config) for TI1_Config
    stdperiphdriver.o(i.TIM_PWMIConfig) refers to stdperiphdriver.o(i.TIM_SetIC1Prescaler) for TIM_SetIC1Prescaler
    stdperiphdriver.o(i.TIM_PWMIConfig) refers to stdperiphdriver.o(i.TI2_Config) for TI2_Config
    stdperiphdriver.o(i.TIM_PWMIConfig) refers to stdperiphdriver.o(i.TIM_SetIC2Prescaler) for TIM_SetIC2Prescaler
    stdperiphdriver.o(i.TIM_TIxExternalClockConfig) refers to stdperiphdriver.o(i.TI2_Config) for TI2_Config
    stdperiphdriver.o(i.TIM_TIxExternalClockConfig) refers to stdperiphdriver.o(i.TI1_Config) for TI1_Config
    stdperiphdriver.o(i.TIM_TIxExternalClockConfig) refers to stdperiphdriver.o(i.TIM_SelectInputTrigger) for TIM_SelectInputTrigger
    stdperiphdriver.o(i.USART_DeInit) refers to stdperiphdriver.o(i.RCC_APB2PeriphResetCmd) for RCC_APB2PeriphResetCmd
    stdperiphdriver.o(i.USART_DeInit) refers to stdperiphdriver.o(i.RCC_APB1PeriphResetCmd) for RCC_APB1PeriphResetCmd
    stdperiphdriver.o(i.USART_Init) refers to stdperiphdriver.o(i.RCC_GetClocksFreq) for RCC_GetClocksFreq
    stdperiphdriver.o(i.USART_Init) refers to uidiv.o(.text) for __aeabi_uidivmod
    stdperiphdriver.o(i.WWDG_DeInit) refers to stdperiphdriver.o(i.RCC_APB1PeriphResetCmd) for RCC_APB1PeriphResetCmd
    startup_stm32f0xx.o(RESET) refers to startup_stm32f0xx.o(STACK) for __initial_sp
    startup_stm32f0xx.o(RESET) refers to startup_stm32f0xx.o(.text) for Reset_Handler
    startup_stm32f0xx.o(RESET) refers to i2cprt.o(i.I2C1_IRQHandler) for I2C1_IRQHandler
    startup_stm32f0xx.o(RESET) refers to uart.o(i.USART1_IRQHandler) for USART1_IRQHandler
    startup_stm32f0xx.o(RESET) refers to uart.o(i.USART2_IRQHandler) for USART2_IRQHandler
    startup_stm32f0xx.o(.text) refers to clock.o(i.SystemInit) for SystemInit
    startup_stm32f0xx.o(.text) refers to entry.o(.ARM.Collect$$$$00000000) for __main
    adc.o(i.ADC_vInit) refers to stdperiphdriver.o(i.ADC_DeInit) for ADC_DeInit
    adc.o(i.ADC_vInit) refers to stdperiphdriver.o(i.RCC_AHBPeriphClockCmd) for RCC_AHBPeriphClockCmd
    adc.o(i.ADC_vInit) refers to stdperiphdriver.o(i.RCC_APB2PeriphClockCmd) for RCC_APB2PeriphClockCmd
    adc.o(i.ADC_vInit) refers to stdperiphdriver.o(i.DMA_DeInit) for DMA_DeInit
    adc.o(i.ADC_vInit) refers to stdperiphdriver.o(i.DMA_Init) for DMA_Init
    adc.o(i.ADC_vInit) refers to stdperiphdriver.o(i.DMA_Cmd) for DMA_Cmd
    adc.o(i.ADC_vInit) refers to stdperiphdriver.o(i.ADC_DMARequestModeConfig) for ADC_DMARequestModeConfig
    adc.o(i.ADC_vInit) refers to stdperiphdriver.o(i.ADC_StructInit) for ADC_StructInit
    adc.o(i.ADC_vInit) refers to stdperiphdriver.o(i.ADC_Init) for ADC_Init
    adc.o(i.ADC_vInit) refers to stdperiphdriver.o(i.ADC_ChannelConfig) for ADC_ChannelConfig
    adc.o(i.ADC_vInit) refers to stdperiphdriver.o(i.ADC_GetCalibrationFactor) for ADC_GetCalibrationFactor
    adc.o(i.ADC_vInit) refers to stdperiphdriver.o(i.ADC_Cmd) for ADC_Cmd
    adc.o(i.ADC_vInit) refers to stdperiphdriver.o(i.ADC_GetFlagStatus) for ADC_GetFlagStatus
    adc.o(i.ADC_vInit) refers to stdperiphdriver.o(i.ADC_StartOfConversion) for ADC_StartOfConversion
    adc.o(i.ADC_vInit) refers to stdperiphdriver.o(i.ADC_DMACmd) for ADC_DMACmd
    adc.o(i.ADC_vInit) refers to adc.o(.data) for mg_u16AdcResultRaw
    adc.o(i.ADC_vInit) refers to adc.o(.constdata) for ADC_CFG_ADC_SETUP
    adc.o(i.ADC_vReadRaw) refers to adc.o(.data) for mg_u16AdcResultRaw
    buffer.o(i.BUFFER_SCB_vInit) refers to buffer.o(.bss) for mg_u32Buffer1ms
    buffer.o(i.BUFFER_SCB_vLoop10msTask) refers to buffer.o(i.BUFFER_SCFG_vReadValue) for BUFFER_SCFG_vReadValue
    buffer.o(i.BUFFER_SCB_vLoop10msTask) refers to buffer.o(.data) for u16ReadValue
    buffer.o(i.BUFFER_SCB_vLoop10msTask) refers to buffer.o(.bss) for mg_u32Buffer10ms
    buffer.o(i.BUFFER_SCB_vLoop1msTask) refers to buffer.o(i.BUFFER_SCFG_vReadValue) for BUFFER_SCFG_vReadValue
    buffer.o(i.BUFFER_SCB_vLoop1msTask) refers to buffer.o(.data) for u16ReadValue
    buffer.o(i.BUFFER_SCB_vLoop1msTask) refers to buffer.o(.bss) for mg_u32Buffer1ms
    buffer.o(i.BUFFER_SCFG_vReadValue) refers to buffer.o(i.__ARM_common_switch8) for __ARM_common_switch8
    buffer.o(i.BUFFER_SCFG_vReadValue) refers to adc.o(i.ADC_vReadRaw) for ADC_vReadRaw
    buffer.o(i.BUFFER_SCFG_vReadValue) refers to rte.o(.bss) for PMBUS_tData
    buffer.o(i.BUFFER_u16GetMean10ms) refers to buffer.o(.bss) for mg_u16Means10ms
    buffer.o(i.BUFFER_u16GetMean1ms) refers to buffer.o(.bss) for mg_u16Means1ms
    clock.o(i.CLOCK_vInit) refers to clock.o(i.SystemInit) for SystemInit
    clock.o(i.CLOCK_vSysCoreClkUpdate) refers to uidiv.o(.text) for __aeabi_uidivmod
    clock.o(i.CLOCK_vSysCoreClkUpdate) refers to clock.o(.data) for mg_u32SysCoreClk
    clock.o(i.SystemInit) refers to clock.o(i.mg_vIntOscSel) for mg_vIntOscSel
    eeprom.o(i.EEPROM_u32ReadBuffer) refers to idiv.o(.text) for __aeabi_idivmod
    eeprom.o(i.EEPROM_u32ReadBuffer) refers to stdperiphdriver.o(i.I2C_TransferHandling) for I2C_TransferHandling
    eeprom.o(i.EEPROM_u32ReadBuffer) refers to eeprom.o(i.mg_u32TimeoutUserCallback) for mg_u32TimeoutUserCallback
    eeprom.o(i.EEPROM_u32ReadBuffer) refers to stdperiphdriver.o(i.I2C_GetFlagStatus) for I2C_GetFlagStatus
    eeprom.o(i.EEPROM_u32ReadBuffer) refers to stdperiphdriver.o(i.I2C_SendData) for I2C_SendData
    eeprom.o(i.EEPROM_u32ReadBuffer) refers to stdperiphdriver.o(i.I2C_ReceiveData) for I2C_ReceiveData
    eeprom.o(i.EEPROM_u32ReadBuffer) refers to stdperiphdriver.o(i.I2C_ClearFlag) for I2C_ClearFlag
    eeprom.o(i.EEPROM_u32ReadBuffer) refers to eeprom.o(.data) for EEPROMAddress
    eeprom.o(i.EEPROM_u32WaitEepromStandbyState) refers to stdperiphdriver.o(i.I2C_TransferHandling) for I2C_TransferHandling
    eeprom.o(i.EEPROM_u32WaitEepromStandbyState) refers to stdperiphdriver.o(i.I2C_ClearFlag) for I2C_ClearFlag
    eeprom.o(i.EEPROM_u32WaitEepromStandbyState) refers to stdperiphdriver.o(i.I2C_GenerateSTART) for I2C_GenerateSTART
    eeprom.o(i.EEPROM_u32WaitEepromStandbyState) refers to eeprom.o(i.mg_u32TimeoutUserCallback) for mg_u32TimeoutUserCallback
    eeprom.o(i.EEPROM_u32WaitEepromStandbyState) refers to stdperiphdriver.o(i.I2C_GetFlagStatus) for I2C_GetFlagStatus
    eeprom.o(i.EEPROM_u32WaitEepromStandbyState) refers to eeprom.o(.data) for EEPROMAddress
    eeprom.o(i.EEPROM_u32WriteBuffer) refers to eeprom.o(i.EEPROM_u32WritePage) for EEPROM_u32WritePage
    eeprom.o(i.EEPROM_u32WriteBuffer) refers to eeprom.o(i.mg_u32TimeoutUserCallback) for mg_u32TimeoutUserCallback
    eeprom.o(i.EEPROM_u32WriteBuffer) refers to eeprom.o(i.EEPROM_u32WaitEepromStandbyState) for EEPROM_u32WaitEepromStandbyState
    eeprom.o(i.EEPROM_u32WriteBuffer) refers to eeprom.o(.data) for EEPROMDataNum
    eeprom.o(i.EEPROM_u32WritePage) refers to stdperiphdriver.o(i.I2C_TransferHandling) for I2C_TransferHandling
    eeprom.o(i.EEPROM_u32WritePage) refers to eeprom.o(i.mg_u32TimeoutUserCallback) for mg_u32TimeoutUserCallback
    eeprom.o(i.EEPROM_u32WritePage) refers to stdperiphdriver.o(i.I2C_GetFlagStatus) for I2C_GetFlagStatus
    eeprom.o(i.EEPROM_u32WritePage) refers to stdperiphdriver.o(i.I2C_SendData) for I2C_SendData
    eeprom.o(i.EEPROM_u32WritePage) refers to stdperiphdriver.o(i.I2C_ClearFlag) for I2C_ClearFlag
    eeprom.o(i.EEPROM_u32WritePage) refers to eeprom.o(.data) for EEPROMAddress
    eeprom.o(i.EEPROM_vInit) refers to eeprom.o(.data) for EEPROMAddress
    flash.o(i.FLASH_u32BootloaderFwVer) refers to flash.o(i.FLASH_u32ReadWordFlash) for FLASH_u32ReadWordFlash
    flash.o(i.FLASH_u8AppWr) refers to stdperiphdriver.o(i.FLASH_Unlock) for FLASH_Unlock
    flash.o(i.FLASH_u8AppWr) refers to flash.o(i.mg_u8MemoryWr) for mg_u8MemoryWr
    flash.o(i.FLASH_u8AppWr) refers to stdperiphdriver.o(i.FLASH_Lock) for FLASH_Lock
    flash.o(i.FLASH_u8AppWr32) refers to stdperiphdriver.o(i.FLASH_Unlock) for FLASH_Unlock
    flash.o(i.FLASH_u8AppWr32) refers to stdperiphdriver.o(i.FLASH_ErasePage) for FLASH_ErasePage
    flash.o(i.FLASH_u8AppWr32) refers to flash.o(i.mg_u8MemoryWr) for mg_u8MemoryWr
    flash.o(i.FLASH_u8AppWr32) refers to stdperiphdriver.o(i.FLASH_Lock) for FLASH_Lock
    flash.o(i.FLASH_u8AppWr32) refers to flash.o(.data) for FLASH_mg_u32Offset
    flash.o(i.FLASH_u8ErasePageFlash) refers to stdperiphdriver.o(i.FLASH_Unlock) for FLASH_Unlock
    flash.o(i.FLASH_u8ErasePageFlash) refers to stdperiphdriver.o(i.FLASH_ErasePage) for FLASH_ErasePage
    flash.o(i.FLASH_u8ErasePageFlash) refers to stdperiphdriver.o(i.FLASH_Lock) for FLASH_Lock
    flash.o(i.FLASH_u8ReadBlExistFlg) refers to flash.o(i.FLASH_u32ReadWordFlash) for FLASH_u32ReadWordFlash
    flash.o(i.FLASH_u8WriteHalfWordFlash) refers to stdperiphdriver.o(i.FLASH_Unlock) for FLASH_Unlock
    flash.o(i.FLASH_u8WriteHalfWordFlash) refers to stdperiphdriver.o(i.FLASH_ProgramHalfWord) for FLASH_ProgramHalfWord
    flash.o(i.FLASH_u8WriteHalfWordFlash) refers to stdperiphdriver.o(i.FLASH_Lock) for FLASH_Lock
    flash.o(i.FLASH_u8WriteWordFlash) refers to stdperiphdriver.o(i.FLASH_Unlock) for FLASH_Unlock
    flash.o(i.FLASH_u8WriteWordFlash) refers to stdperiphdriver.o(i.FLASH_ProgramWord) for FLASH_ProgramWord
    flash.o(i.FLASH_u8WriteWordFlash) refers to stdperiphdriver.o(i.FLASH_Lock) for FLASH_Lock
    flash.o(i.FLASH_vRemapVectorTable) refers to stdperiphdriver.o(i.RCC_APB2PeriphResetCmd) for RCC_APB2PeriphResetCmd
    flash.o(i.FLASH_vRemapVectorTable) refers to stdperiphdriver.o(i.SYSCFG_MemoryRemapConfig) for SYSCFG_MemoryRemapConfig
    flash.o(i.FLASH_vRemapVectorTable) refers to flash.o(.data) for VectorAdd
    flash.o(i.FLASH_vRemapVectorTable) refers to flash.o(.ARM.__AT_0x20000000) for VectorTable
    flash.o(i.mg_u8MemoryWr) refers to stdperiphdriver.o(i.FLASH_ProgramWord) for FLASH_ProgramWord
    main.o(i.main) refers to flash.o(i.FLASH_vRemapVectorTable) for FLASH_vRemapVectorTable
    main.o(i.main) refers to schm.o(i.SCHM_vInit) for SCHM_vInit
    main.o(i.main) refers to schm.o(i.SCHM_vSchmIdleLoop) for SCHM_vSchmIdleLoop
    port.o(i.PORT_u8ReadGpioPin) refers to port.o(.constdata) for PORT_CFG_PORT_SETUP
    port.o(i.PORT_vDeInit) refers to port.o(.constdata) for PORT_CFG_PORT_SETUP
    port.o(i.PORT_vInit) refers to stdperiphdriver.o(i.RCC_AHBPeriphClockCmd) for RCC_AHBPeriphClockCmd
    port.o(i.PORT_vInit) refers to stdperiphdriver.o(i.GPIO_PinAFConfig) for GPIO_PinAFConfig
    port.o(i.PORT_vInit) refers to stdperiphdriver.o(i.GPIO_Init) for GPIO_Init
    port.o(i.PORT_vInit) refers to port.o(.constdata) for PORT_CFG_PORT_SETUP
    port.o(i.PORT_vSetGpioMode) refers to port.o(.data) for u8Mode
    port.o(i.PORT_vSetGpioMode) refers to port.o(.constdata) for PORT_CFG_PORT_SETUP
    port.o(i.PORT_vSetGpioPin) refers to port.o(.constdata) for PORT_CFG_PORT_SETUP
    port.o(i.PORT_vSetGpioPinToggle) refers to port.o(.constdata) for PORT_CFG_PORT_SETUP
    pwm.o(i.PWM_vInit) refers to stdperiphdriver.o(i.TIM_TimeBaseInit) for TIM_TimeBaseInit
    pwm.o(i.PWM_vInit) refers to stdperiphdriver.o(i.TIM_OC1Init) for TIM_OC1Init
    pwm.o(i.PWM_vInit) refers to stdperiphdriver.o(i.TIM_OC1PreloadConfig) for TIM_OC1PreloadConfig
    pwm.o(i.PWM_vInit) refers to stdperiphdriver.o(i.TIM_OC2Init) for TIM_OC2Init
    pwm.o(i.PWM_vInit) refers to stdperiphdriver.o(i.TIM_OC2PreloadConfig) for TIM_OC2PreloadConfig
    pwm.o(i.PWM_vInit) refers to stdperiphdriver.o(i.TIM_OC3Init) for TIM_OC3Init
    pwm.o(i.PWM_vInit) refers to stdperiphdriver.o(i.TIM_OC3PreloadConfig) for TIM_OC3PreloadConfig
    pwm.o(i.PWM_vInit) refers to stdperiphdriver.o(i.TIM_OC4Init) for TIM_OC4Init
    pwm.o(i.PWM_vInit) refers to stdperiphdriver.o(i.TIM_OC4PreloadConfig) for TIM_OC4PreloadConfig
    pwm.o(i.PWM_vInit) refers to stdperiphdriver.o(i.TIM_Cmd) for TIM_Cmd
    pwm.o(i.PWM_vInit) refers to stdperiphdriver.o(i.TIM_CtrlPWMOutputs) for TIM_CtrlPWMOutputs
    pwm.o(i.PWM_vInit) refers to pwm.o(.constdata) for PWM_CFG_PWM_SETUP
    pwm.o(i.PWM_vPwmDutyUpdate) refers to uidiv.o(.text) for __aeabi_uidivmod
    pwm.o(i.PWM_vPwmDutyUpdate) refers to stdperiphdriver.o(i.TIM_SetCompare1) for TIM_SetCompare1
    pwm.o(i.PWM_vPwmDutyUpdate) refers to stdperiphdriver.o(i.TIM_SetCompare2) for TIM_SetCompare2
    pwm.o(i.PWM_vPwmDutyUpdate) refers to stdperiphdriver.o(i.TIM_SetCompare3) for TIM_SetCompare3
    pwm.o(i.PWM_vPwmDutyUpdate) refers to stdperiphdriver.o(i.TIM_SetCompare4) for TIM_SetCompare4
    pwm.o(i.PWM_vPwmDutyUpdate) refers to pwm.o(.constdata) for PWM_CFG_PWM_SETUP
    pwm.o(.constdata) refers to stdperiphdriver.o(i.RCC_APB2PeriphClockCmd) for RCC_APB2PeriphClockCmd
    pwm.o(.constdata) refers to stdperiphdriver.o(i.RCC_APB1PeriphClockCmd) for RCC_APB1PeriphClockCmd
    rte.o(i.RTE_vInit) refers to rte.o(.data) for RTE_uTempOtwStatus
    rte.o(i.RTE_vInit) refers to rte.o(.bss) for RTE_Pri
    schm.o(i.SCHM_vInit) refers to clock.o(i.CLOCK_vInit) for CLOCK_vInit
    schm.o(i.SCHM_vInit) refers to flash.o(i.FLASH_vInit) for FLASH_vInit
    schm.o(i.SCHM_vInit) refers to port.o(i.PORT_vSetGpioPin) for PORT_vSetGpioPin
    schm.o(i.SCHM_vInit) refers to port.o(i.PORT_vInit) for PORT_vInit
    schm.o(i.SCHM_vInit) refers to timer.o(i.TIMER_vInit) for TIMER_vInit
    schm.o(i.SCHM_vInit) refers to pwm.o(i.PWM_vInit) for PWM_vInit
    schm.o(i.SCHM_vInit) refers to adc.o(i.ADC_vInit) for ADC_vInit
    schm.o(i.SCHM_vInit) refers to uart.o(i.UART_vInit) for UART_vInit
    schm.o(i.SCHM_vInit) refers to rtc.o(i.RTC_vInit) for RTC_vInit
    schm.o(i.SCHM_vInit) refers to i2c.o(i.I2C_vInit) for I2C_vInit
    schm.o(i.SCHM_vInit) refers to rte.o(i.RTE_vInit) for RTE_vInit
    schm.o(i.SCHM_vInit) refers to hwio.o(i.HWIO_vInit) for HWIO_vInit
    schm.o(i.SCHM_vInit) refers to uartprt.o(i.UARTPRT_vInit) for UARTPRT_vInit
    schm.o(i.SCHM_vInit) refers to crc.o(i.CRC_vInit) for CRC_vInit
    schm.o(i.SCHM_vInit) refers to buffer.o(i.BUFFER_SCB_vInit) for BUFFER_SCB_vInit
    schm.o(i.SCHM_vInit) refers to eeprom.o(i.EEPROM_vInit) for EEPROM_vInit
    schm.o(i.SCHM_vInit) refers to i2cprt.o(i.I2CPRT_vInit) for I2CPRT_vInit
    schm.o(i.SCHM_vInit) refers to cali.o(i.CALI_vInit) for CALI_vInit
    schm.o(i.SCHM_vInit) refers to mem.o(i.MEM_vInit) for MEM_vInit
    schm.o(i.SCHM_vInit) refers to intcom.o(i.INTCOM_vInit) for INTCOM_vInit
    schm.o(i.SCHM_vInit) refers to monctrl.o(i.MONCTRL_vInit) for MONCTRL_vInit
    schm.o(i.SCHM_vInit) refers to tempctrl.o(i.TEMPCTRL_vInit) for TEMPCTRL_vInit
    schm.o(i.SCHM_vInit) refers to pmbus.o(i.PMBUS_vInit) for PMBUS_vInit
    schm.o(i.SCHM_vInit) refers to fanctrl.o(i.FANCTRL_vInit) for FANCTRL_vInit
    schm.o(i.SCHM_vInit) refers to ledctrl.o(i.LEDCTRL_vInit) for LEDCTRL_vInit
    schm.o(i.SCHM_vInit) refers to timectrl.o(i.TIMECTRL_vInit) for TIMECTRL_vInit
    schm.o(i.SCHM_vInit) refers to psuctrl.o(i.PSUCTRL_vInit) for PSUCTRL_vInit
    schm.o(i.SCHM_vInit) refers to blabox.o(i.BLABOX_vInit) for BLABOX_vInit
    schm.o(i.SCHM_vInit) refers to hwio.o(i.HWIO_vCheckBootLoaderExistFlg) for HWIO_vCheckBootLoaderExistFlg
    schm.o(i.SCHM_vSchmIdleLoop) refers to timer.o(i.TIMER_u8GetUpdateFlg) for TIMER_u8GetUpdateFlg
    schm.o(i.SCHM_vSchmIdleLoop) refers to schm.o(i.SCHM_vSchmRoutine) for SCHM_vSchmRoutine
    schm.o(i.SCHM_vSchmRoutine) refers to timer.o(i.TIMER_vClearUpdateFlg) for TIMER_vClearUpdateFlg
    schm.o(i.SCHM_vSchmRoutine) refers to uartprt.o(i.UARTPRT_vTxData) for UARTPRT_vTxData
    schm.o(i.SCHM_vSchmRoutine) refers to i2c.o(i.I2C_vI2cTimeOutHandler) for I2C_vI2cTimeOutHandler
    schm.o(i.SCHM_vSchmRoutine) refers to hwio.o(i.HWIO_vReadGpioPort) for HWIO_vReadGpioPort
    schm.o(i.SCHM_vSchmRoutine) refers to hwio.o(i.HWIO_vSetGpioPort) for HWIO_vSetGpioPort
    schm.o(i.SCHM_vSchmRoutine) refers to cali.o(i.CALI_vCalibrateIShare) for CALI_vCalibrateIShare
    schm.o(i.SCHM_vSchmRoutine) refers to cali.o(i.CALI_vCaliFast) for CALI_vCaliFast
    schm.o(i.SCHM_vSchmRoutine) refers to monctrl.o(i.MONCTRL_vCheckVsbOvp) for MONCTRL_vCheckVsbOvp
    schm.o(i.SCHM_vSchmRoutine) refers to buffer.o(i.__ARM_common_switch8) for __ARM_common_switch8
    schm.o(i.SCHM_vSchmRoutine) refers to uartprt.o(i.UARTPRT_vTmOutMon) for UARTPRT_vTmOutMon
    schm.o(i.SCHM_vSchmRoutine) refers to uartprt.o(i.UARTPRT_vHandleTxData) for UARTPRT_vHandleTxData
    schm.o(i.SCHM_vSchmRoutine) refers to uartprt.o(i.UARTPRT_vHandleRxData) for UARTPRT_vHandleRxData
    schm.o(i.SCHM_vSchmRoutine) refers to monctrl.o(i.MONCTRL_vVsbOutput) for MONCTRL_vVsbOutput
    schm.o(i.SCHM_vSchmRoutine) refers to psuctrl.o(i.PSUCTRL_vVsbOut) for PSUCTRL_vVsbOut
    schm.o(i.SCHM_vSchmRoutine) refers to psuctrl.o(i.PSUCTRL_vV1Out) for PSUCTRL_vV1Out
    schm.o(i.SCHM_vSchmRoutine) refers to tempctrl.o(i.TEMPCTRL_vNtcVoltAverage) for TEMPCTRL_vNtcVoltAverage
    schm.o(i.SCHM_vSchmRoutine) refers to i2cprt.o(i.I2CPRT_vProcessReceiveData) for I2CPRT_vProcessReceiveData
    schm.o(i.SCHM_vSchmRoutine) refers to pmbus.o(i.PMBUS_vCopyPecAndOringStatus) for PMBUS_vCopyPecAndOringStatus
    schm.o(i.SCHM_vSchmRoutine) refers to intcom.o(i.INTCOM_vTmOutMon) for INTCOM_vTmOutMon
    schm.o(i.SCHM_vSchmRoutine) refers to buffer.o(i.BUFFER_SCB_vLoop1msTask) for BUFFER_SCB_vLoop1msTask
    schm.o(i.SCHM_vSchmRoutine) refers to monctrl.o(i.MONCTRL_vVin) for MONCTRL_vVin
    schm.o(i.SCHM_vSchmRoutine) refers to cali.o(i.CALI_vCaliHandler) for CALI_vCaliHandler
    schm.o(i.SCHM_vSchmRoutine) refers to pmbus.o(i.PMBUS_vCopySensorData) for PMBUS_vCopySensorData
    schm.o(i.SCHM_vSchmRoutine) refers to monctrl.o(i.MONCTRL_vUpdateStatus) for MONCTRL_vUpdateStatus
    schm.o(i.SCHM_vSchmRoutine) refers to ledctrl.o(i.LEDCTRL_vLedControl) for LEDCTRL_vLedControl
    schm.o(i.SCHM_vSchmRoutine) refers to psuctrl.o(i.PSUCTRL_vTrim) for PSUCTRL_vTrim
    schm.o(i.SCHM_vSchmRoutine) refers to cali.o(i.CALI_vCalcCaliPara) for CALI_vCalcCaliPara
    schm.o(i.SCHM_vSchmRoutine) refers to fanctrl.o(i.FANCTRL_vFanSpeedCalc) for FANCTRL_vFanSpeedCalc
    schm.o(i.SCHM_vSchmRoutine) refers to pmbus.o(i.PMBUS_vCheckBootMode) for PMBUS_vCheckBootMode
    schm.o(i.SCHM_vSchmRoutine) refers to buffer.o(i.BUFFER_SCB_vLoop10msTask) for BUFFER_SCB_vLoop10msTask
    schm.o(i.SCHM_vSchmRoutine) refers to blabox.o(i.BLABOX_vProcessBlackbox) for BLABOX_vProcessBlackbox
    schm.o(i.SCHM_vSchmRoutine) refers to mem.o(i.MEM_vSaveData) for MEM_vSaveData
    schm.o(i.SCHM_vSchmRoutine) refers to fanctrl.o(i.FANCTRL_vFanCtrl) for FANCTRL_vFanCtrl
    schm.o(i.SCHM_vSchmRoutine) refers to blabox.o(i.BLABOX_vMFR_CheckACBlackBox) for BLABOX_vMFR_CheckACBlackBox
    schm.o(i.SCHM_vSchmRoutine) refers to monctrl.o(i.MONCTRL_vCheckStatusReset) for MONCTRL_vCheckStatusReset
    schm.o(i.SCHM_vSchmRoutine) refers to blabox.o(i.BLABOX_vMFR_TimePSONBlackBox) for BLABOX_vMFR_TimePSONBlackBox
    schm.o(i.SCHM_vSchmRoutine) refers to pmbus.o(i.PMBUS_vCopyStatusData) for PMBUS_vCopyStatusData
    schm.o(i.SCHM_vSchmRoutine) refers to blabox.o(i.BLABOX_vCountRealTimeClockDataSystemBlackbox) for BLABOX_vCountRealTimeClockDataSystemBlackbox
    schm.o(i.SCHM_vSchmRoutine) refers to tempctrl.o(i.TEMPCTRL_vLookUpNtcTemperature) for TEMPCTRL_vLookUpNtcTemperature
    schm.o(i.SCHM_vSchmRoutine) refers to blabox.o(i.BLABOX_vClearWarning) for BLABOX_vClearWarning
    schm.o(i.SCHM_vSchmRoutine) refers to pmbus.o(i.PMBUS_vCopyDebugData) for PMBUS_vCopyDebugData
    schm.o(i.SCHM_vSchmRoutine) refers to tempctrl.o(i.TEMPCTRL_vNtcTempMonitor) for TEMPCTRL_vNtcTempMonitor
    schm.o(i.SCHM_vSchmRoutine) refers to monctrl.o(i.MONCTRL_vAxuModeDetect) for MONCTRL_vAxuModeDetect
    schm.o(i.SCHM_vSchmRoutine) refers to blabox.o(i.BLABOX_vMFR_CheckPSONBlackBox) for BLABOX_vMFR_CheckPSONBlackBox
    schm.o(i.SCHM_vSchmRoutine) refers to timectrl.o(i.TIMECTRL_vSaveHoursUsed) for TIMECTRL_vSaveHoursUsed
    schm.o(i.SCHM_vSchmRoutine) refers to schm.o(.data) for SCHM_mg_sFlowCtrl
    timer.o(i.TIMER_u8GetUpdateFlg) refers to stdperiphdriver.o(i.TIM_GetFlagStatus) for TIM_GetFlagStatus
    timer.o(i.TIMER_u8GetUpdateFlg) refers to timer.o(.constdata) for TIMER_CFG_TIMER_SETUP
    timer.o(i.TIMER_vClearUpdateFlg) refers to stdperiphdriver.o(i.TIM_ClearFlag) for TIM_ClearFlag
    timer.o(i.TIMER_vClearUpdateFlg) refers to timer.o(.constdata) for TIMER_CFG_TIMER_SETUP
    timer.o(i.TIMER_vInit) refers to stdperiphdriver.o(i.TIM_TimeBaseInit) for TIM_TimeBaseInit
    timer.o(i.TIMER_vInit) refers to stdperiphdriver.o(i.TIM_GenerateEvent) for TIM_GenerateEvent
    timer.o(i.TIMER_vInit) refers to stdperiphdriver.o(i.TIM_ITConfig) for TIM_ITConfig
    timer.o(i.TIMER_vInit) refers to stdperiphdriver.o(i.TIM_Cmd) for TIM_Cmd
    timer.o(i.TIMER_vInit) refers to timer.o(.constdata) for TIMER_CFG_TIMER_SETUP
    timer.o(.constdata) refers to stdperiphdriver.o(i.RCC_APB2PeriphClockCmd) for RCC_APB2PeriphClockCmd
    wdg.o(i.WDG_vInit) refers to stdperiphdriver.o(i.IWDG_WriteAccessCmd) for IWDG_WriteAccessCmd
    wdg.o(i.WDG_vInit) refers to stdperiphdriver.o(i.IWDG_SetPrescaler) for IWDG_SetPrescaler
    wdg.o(i.WDG_vInit) refers to stdperiphdriver.o(i.IWDG_GetFlagStatus) for IWDG_GetFlagStatus
    wdg.o(i.WDG_vWatchDogEn) refers to stdperiphdriver.o(i.IWDG_WriteAccessCmd) for IWDG_WriteAccessCmd
    wdg.o(i.WDG_vWatchDogEn) refers to stdperiphdriver.o(i.IWDG_Enable) for IWDG_Enable
    wdg.o(i.WDG_vWdgSetTimeOutDly) refers to ffltui.o(.text) for __aeabi_ui2f
    wdg.o(i.WDG_vWdgSetTimeOutDly) refers to fmul.o(.text) for __aeabi_fmul
    wdg.o(i.WDG_vWdgSetTimeOutDly) refers to ffixui.o(.text) for __aeabi_f2uiz
    wdg.o(i.WDG_vWdgSetTimeOutDly) refers to stdperiphdriver.o(i.IWDG_WriteAccessCmd) for IWDG_WriteAccessCmd
    wdg.o(i.WDG_vWdgSetTimeOutDly) refers to stdperiphdriver.o(i.IWDG_SetReload) for IWDG_SetReload
    wdg.o(i.WDG_vWdgSetTimeOutDly) refers to stdperiphdriver.o(i.IWDG_GetFlagStatus) for IWDG_GetFlagStatus
    wdg.o(i.WDG_vWdgSetTimeOutDly) refers to stdperiphdriver.o(i.IWDG_ReloadCounter) for IWDG_ReloadCounter
    crc.o(i.CRC_u16GetCrc16) refers to crc.o(.constdata) for CRC_mg_au16crc16tab
    crc.o(i.CRC_u8GetCrc8) refers to crc.o(.constdata) for CRC_mg_au8CrcTable
    i2c.o(i.I2C_vClearTimeoutCnt) refers to i2c.o(.data) for mg_u16SclLowCnt
    i2c.o(i.I2C_vDisableNvicInt) refers to stdperiphdriver.o(i.NVIC_Init) for NVIC_Init
    i2c.o(i.I2C_vDisableNvicInt) refers to i2c.o(.constdata) for I2C_CFG_I2C_SETUP
    i2c.o(i.I2C_vEnableNvicInt) refers to stdperiphdriver.o(i.NVIC_Init) for NVIC_Init
    i2c.o(i.I2C_vEnableNvicInt) refers to i2c.o(.constdata) for I2C_CFG_I2C_SETUP
    i2c.o(i.I2C_vI2cTimeOutHandler) refers to stdperiphdriver.o(i.GPIO_ReadInputDataBit) for GPIO_ReadInputDataBit
    i2c.o(i.I2C_vI2cTimeOutHandler) refers to stdperiphdriver.o(i.I2C_SoftwareResetCmd) for I2C_SoftwareResetCmd
    i2c.o(i.I2C_vI2cTimeOutHandler) refers to i2c.o(i.mg_vI2cReset) for mg_vI2cReset
    i2c.o(i.I2C_vI2cTimeOutHandler) refers to rte.o(.data) for RTE_u16I2cStatus0
    i2c.o(i.I2C_vI2cTimeOutHandler) refers to i2c.o(.constdata) for I2C_CFG_I2C_SETUP
    i2c.o(i.I2C_vI2cTimeOutHandler) refers to i2c.o(.data) for mg_u16SclLowCnt
    i2c.o(i.I2C_vInit) refers to i2c.o(i.mg_vI2cReset) for mg_vI2cReset
    i2c.o(i.I2C_vInit) refers to stdperiphdriver.o(i.I2C_ITConfig) for I2C_ITConfig
    i2c.o(i.I2C_vInit) refers to stdperiphdriver.o(i.NVIC_Init) for NVIC_Init
    i2c.o(i.I2C_vInit) refers to i2c.o(.constdata) for I2C_CFG_I2C_SETUP
    i2c.o(i.mg_vI2cReset) refers to stdperiphdriver.o(i.I2C_StretchClockCmd) for I2C_StretchClockCmd
    i2c.o(i.mg_vI2cReset) refers to stdperiphdriver.o(i.I2C_Init) for I2C_Init
    i2c.o(i.mg_vI2cReset) refers to stdperiphdriver.o(i.I2C_Cmd) for I2C_Cmd
    i2c.o(i.mg_vI2cReset) refers to i2c.o(.constdata) for I2C_CFG_I2C_SETUP
    i2c.o(.constdata) refers to stdperiphdriver.o(i.RCC_APB1PeriphClockCmd) for RCC_APB1PeriphClockCmd
    rtc.o(i.RTC_vInit) refers to stdperiphdriver.o(i.RCC_APB1PeriphClockCmd) for RCC_APB1PeriphClockCmd
    rtc.o(i.RTC_vInit) refers to stdperiphdriver.o(i.PWR_BackupAccessCmd) for PWR_BackupAccessCmd
    rtc.o(i.RTC_vInit) refers to stdperiphdriver.o(i.RCC_BackupResetCmd) for RCC_BackupResetCmd
    rtc.o(i.RTC_vInit) refers to stdperiphdriver.o(i.RCC_RTCCLKConfig) for RCC_RTCCLKConfig
    rtc.o(i.RTC_vInit) refers to stdperiphdriver.o(i.RCC_RTCCLKCmd) for RCC_RTCCLKCmd
    rtc.o(i.RTC_vInit) refers to stdperiphdriver.o(i.RTC_Init) for RTC_Init
    rtc.o(i.RTC_vInit) refers to stdperiphdriver.o(i.RTC_WaitForSynchro) for RTC_WaitForSynchro
    rtc.o(i.RTC_vInit) refers to rtc.o(.data) for mg_u32AsynchPrediv
    cali.o(i.CALI_Rte_Read_B_R_VIN_OK) refers to rte.o(.bss) for RTE_Pri
    cali.o(i.CALI_Rte_Read_R_u1610mAIoutAvg) refers to rte.o(.bss) for RTE_Sec
    cali.o(i.CALI_SCFG_u8GetCrc8) refers to crc.o(i.CRC_u8GetCrc8) for CRC_u8GetCrc8
    cali.o(i.CALI_vCalcCaliPara) refers to cali.o(i.CALI_Rte_Read_R_u1610mAIoutAvg) for CALI_Rte_Read_R_u1610mAIoutAvg
    cali.o(i.CALI_vCalcCaliPara) refers to rte.o(.bss) for RTE_CALI_sData
    cali.o(i.CALI_vCalcCaliPara) refers to rte.o(.data) for RTE_uCaliI1Amp
    cali.o(i.CALI_vCaliFast) refers to adc.o(i.ADC_vReadRaw) for ADC_vReadRaw
    cali.o(i.CALI_vCaliFast) refers to cali.o(i.mg_s32GetCalibratedData) for mg_s32GetCalibratedData
    cali.o(i.CALI_vCaliFast) refers to cali.o(.data) for mg_u16Tmp
    cali.o(i.CALI_vCaliFast) refers to rte.o(.bss) for RTE_CALI_sData
    cali.o(i.CALI_vCaliFast) refers to rte.o(.data) for RTE_u16VoutIntVsbFast
    cali.o(i.CALI_vCaliHandler) refers to cali.o(i.mg_vCopyCaliData) for mg_vCopyCaliData
    cali.o(i.CALI_vCaliHandler) refers to cali.o(i.mg_vSaveCaliData) for mg_vSaveCaliData
    cali.o(i.CALI_vCaliHandler) refers to buffer.o(i.__ARM_common_switch8) for __ARM_common_switch8
    cali.o(i.CALI_vCaliHandler) refers to cali.o(i.mg_vCalibrateVin) for mg_vCalibrateVin
    cali.o(i.CALI_vCaliHandler) refers to cali.o(i.mg_vCalibrateIin) for mg_vCalibrateIin
    cali.o(i.CALI_vCaliHandler) refers to cali.o(i.mg_vCalibratePin) for mg_vCalibratePin
    cali.o(i.CALI_vCaliHandler) refers to cali.o(i.mg_vCalibrateV1) for mg_vCalibrateV1
    cali.o(i.CALI_vCaliHandler) refers to cali.o(i.mg_vCalibrateVsb) for mg_vCalibrateVsb
    cali.o(i.CALI_vCaliHandler) refers to cali.o(i.mg_vCalibrateV1Sense) for mg_vCalibrateV1Sense
    cali.o(i.CALI_vCaliHandler) refers to cali.o(i.mg_vCalibrateIShave) for mg_vCalibrateIShave
    cali.o(i.CALI_vCaliHandler) refers to rte.o(.data) for CALI_uStatus
    cali.o(i.CALI_vCaliHandler) refers to rte.o(.bss) for CALI_sPara
    cali.o(i.CALI_vCaliHandler) refers to cali.o(.data) for mg_u8CaliSensor
    cali.o(i.CALI_vCalibrateIShare) refers to cali.o(i.CALI_Rte_Read_R_u1610mAIoutAvg) for CALI_Rte_Read_R_u1610mAIoutAvg
    cali.o(i.CALI_vCalibrateIShare) refers to rte.o(.bss) for RTE_CALI_sData
    cali.o(i.CALI_vCalibrateIShare) refers to rte.o(.data) for RTE_u16IShareGain
    cali.o(i.CALI_vCalibrateIout) refers to cali.o(i.mg_s32GetCalibratedData) for mg_s32GetCalibratedData
    cali.o(i.CALI_vCalibrateIout) refers to rte.o(.bss) for RTE_Sec
    cali.o(i.CALI_vCalibrateIout) refers to rte.o(.data) for RTE_u16CaliIout
    cali.o(i.CALI_vCalibrateV1) refers to cali.o(i.mg_vCalibrateV1) for mg_vCalibrateV1
    cali.o(i.CALI_vInit) refers to cali.o(i.mg_vSetDefaultCaliData) for mg_vSetDefaultCaliData
    cali.o(i.CALI_vInit) refers to cali.o(i.mg_vReadEepData) for mg_vReadEepData
    cali.o(i.CALI_vInit) refers to cali.o(i.mg_vCalcV1CurrentGain) for mg_vCalcV1CurrentGain
    cali.o(i.CALI_vInit) refers to rte.o(.bss) for RTE_CALI_sData
    cali.o(i.mg_vCalcV1CurrentGain) refers to idiv.o(.text) for __aeabi_idivmod
    cali.o(i.mg_vCalcV1CurrentGain) refers to rte.o(.bss) for RTE_CALI_sData
    cali.o(i.mg_vCalcV1CurrentGain) refers to rte.o(.data) for RTE_u16V1CurrentGain
    cali.o(i.mg_vCaliDefaultIinAc) refers to rte.o(.bss) for RTE_CALI_sData
    cali.o(i.mg_vCaliDefaultIoutV1) refers to rte.o(.bss) for RTE_CALI_sData
    cali.o(i.mg_vCaliDefaultIoutVsb) refers to rte.o(.bss) for RTE_CALI_sData
    cali.o(i.mg_vCaliDefaultPinAc) refers to rte.o(.bss) for RTE_CALI_sData
    cali.o(i.mg_vCaliDefaultV1IShare) refers to rte.o(.bss) for RTE_CALI_sData
    cali.o(i.mg_vCaliDefaultVinAc) refers to rte.o(.bss) for RTE_CALI_sData
    cali.o(i.mg_vCaliDefaultVoutV1) refers to rte.o(.bss) for RTE_CALI_sData
    cali.o(i.mg_vCaliDefaultVoutVsb) refers to rte.o(.bss) for RTE_CALI_sData
    cali.o(i.mg_vCalibrateIShave) refers to rte.o(.bss) for RTE_Sec
    cali.o(i.mg_vCalibrateIin) refers to cali.o(i.mg_s32GetCalibratedData) for mg_s32GetCalibratedData
    cali.o(i.mg_vCalibrateIin) refers to cali.o(i.CALI_Rte_Read_B_R_VIN_OK) for CALI_Rte_Read_B_R_VIN_OK
    cali.o(i.mg_vCalibrateIin) refers to uidiv.o(.text) for __aeabi_uidivmod
    cali.o(i.mg_vCalibrateIin) refers to rte.o(.bss) for RTE_Pri
    cali.o(i.mg_vCalibrateV1) refers to cali.o(i.mg_s32GetCalibratedData) for mg_s32GetCalibratedData
    cali.o(i.mg_vCalibrateV1) refers to rte.o(.bss) for RTE_Sec
    cali.o(i.mg_vCalibrateV1) refers to rte.o(.data) for RTE_uComStatus00
    cali.o(i.mg_vCalibrateV1Sense) refers to rte.o(.bss) for RTE_Sec
    cali.o(i.mg_vCalibrateVin) refers to cali.o(i.mg_s32GetCalibratedData) for mg_s32GetCalibratedData
    cali.o(i.mg_vCalibrateVin) refers to cali.o(i.CALI_Rte_Read_B_R_VIN_OK) for CALI_Rte_Read_B_R_VIN_OK
    cali.o(i.mg_vCalibrateVin) refers to rte.o(.bss) for RTE_Pri
    cali.o(i.mg_vCalibrateVsb) refers to buffer.o(i.BUFFER_u16GetMean1ms) for BUFFER_u16GetMean1ms
    cali.o(i.mg_vCalibrateVsb) refers to cali.o(i.mg_s32GetCalibratedData) for mg_s32GetCalibratedData
    cali.o(i.mg_vCalibrateVsb) refers to rte.o(.bss) for RTE_CALI_sData
    cali.o(i.mg_vCalibrateVsb) refers to rte.o(.data) for RTE_uComStatus00
    cali.o(i.mg_vCopyCaliData) refers to cali.o(i.mg_vSetDefaultCaliData) for mg_vSetDefaultCaliData
    cali.o(i.mg_vCopyCaliData) refers to cali.o(i.mg_vReadCalibPara) for mg_vReadCalibPara
    cali.o(i.mg_vCopyCaliData) refers to buffer.o(i.__ARM_common_switch8) for __ARM_common_switch8
    cali.o(i.mg_vCopyCaliData) refers to cali.o(i.mg_vCopyDataToBuf) for mg_vCopyDataToBuf
    cali.o(i.mg_vCopyCaliData) refers to cali.o(i.mg_vCalcV1CurrentGain) for mg_vCalcV1CurrentGain
    cali.o(i.mg_vCopyCaliData) refers to rte.o(.data) for CALI_uStatus
    cali.o(i.mg_vCopyCaliData) refers to rte.o(.bss) for RTE_CALI_sData
    cali.o(i.mg_vReadCalibPara) refers to buffer.o(i.__ARM_common_switch8) for __ARM_common_switch8
    cali.o(i.mg_vReadCalibPara) refers to cali.o(i.mg_vCopyDataToBuf) for mg_vCopyDataToBuf
    cali.o(i.mg_vReadCalibPara) refers to rte.o(.bss) for RTE_CALI_sData
    cali.o(i.mg_vReadEepData) refers to eeprom.o(i.EEPROM_u32ReadBuffer) for EEPROM_u32ReadBuffer
    cali.o(i.mg_vReadEepData) refers to cali.o(i.CALI_SCFG_u8GetCrc8) for CALI_SCFG_u8GetCrc8
    cali.o(i.mg_vReadEepData) refers to cali.o(.bss) for mg_u8DataBuf
    cali.o(i.mg_vSaveCaliData) refers to cali.o(i.CALI_SCFG_u8GetCrc8) for CALI_SCFG_u8GetCrc8
    cali.o(i.mg_vSaveCaliData) refers to eeprom.o(i.EEPROM_u32WaitEepromStandbyState) for EEPROM_u32WaitEepromStandbyState
    cali.o(i.mg_vSaveCaliData) refers to eeprom.o(i.EEPROM_u32WriteBuffer) for EEPROM_u32WriteBuffer
    cali.o(i.mg_vSaveCaliData) refers to rte.o(.bss) for CALI_sPara
    cali.o(i.mg_vSaveCaliData) refers to rte.o(.data) for CALI_uStatus
    cali.o(i.mg_vSetDefaultCaliData) refers to cali.o(i.mg_vCaliDefaultVinAc) for mg_vCaliDefaultVinAc
    cali.o(i.mg_vSetDefaultCaliData) refers to cali.o(i.mg_vCaliDefaultIinAc) for mg_vCaliDefaultIinAc
    cali.o(i.mg_vSetDefaultCaliData) refers to cali.o(i.mg_vCaliDefaultPinAc) for mg_vCaliDefaultPinAc
    cali.o(i.mg_vSetDefaultCaliData) refers to cali.o(i.mg_vCaliDefaultVoutV1) for mg_vCaliDefaultVoutV1
    cali.o(i.mg_vSetDefaultCaliData) refers to cali.o(i.mg_vCaliDefaultIoutV1) for mg_vCaliDefaultIoutV1
    cali.o(i.mg_vSetDefaultCaliData) refers to cali.o(i.mg_vCaliDefaultVoutVsb) for mg_vCaliDefaultVoutVsb
    cali.o(i.mg_vSetDefaultCaliData) refers to cali.o(i.mg_vCaliDefaultIoutVsb) for mg_vCaliDefaultIoutVsb
    cali.o(i.mg_vSetDefaultCaliData) refers to cali.o(i.mg_vCaliDefaultV1IShare) for mg_vCaliDefaultV1IShare
    cali.o(i.mg_vSetDefaultCaliData) refers to rte.o(.data) for CALI_uStatus
    uart.o(i.UART_u16UartReadBaudrate) refers to uart.o(.constdata) for UART_CFG_UART_SETUP
    uart.o(i.UART_u8UartReadRxIsrFlg) refers to uart.o(.constdata) for UART_CFG_UART_SETUP
    uart.o(i.UART_u8UartReadRxReg) refers to uart.o(.constdata) for UART_CFG_UART_SETUP
    uart.o(i.UART_u8UartReadTxEmptyFlg) refers to uart.o(.constdata) for UART_CFG_UART_SETUP
    uart.o(i.UART_vInit) refers to stdperiphdriver.o(i.USART_Init) for USART_Init
    uart.o(i.UART_vInit) refers to stdperiphdriver.o(i.USART_Cmd) for USART_Cmd
    uart.o(i.UART_vInit) refers to stdperiphdriver.o(i.USART_ITConfig) for USART_ITConfig
    uart.o(i.UART_vInit) refers to stdperiphdriver.o(i.NVIC_Init) for NVIC_Init
    uart.o(i.UART_vInit) refers to uart.o(.constdata) for UART_CFG_UART_SETUP
    uart.o(i.UART_vInit) refers to uart.o(.data) for mg_Uart1RxIsrCallback
    uart.o(i.UART_vUartWriteTxReg) refers to uart.o(.constdata) for UART_CFG_UART_SETUP
    uart.o(i.USART1_IRQHandler) refers to stdperiphdriver.o(i.USART_GetITStatus) for USART_GetITStatus
    uart.o(i.USART1_IRQHandler) refers to stdperiphdriver.o(i.USART_ClearITPendingBit) for USART_ClearITPendingBit
    uart.o(i.USART1_IRQHandler) refers to uart.o(.data) for mg_Uart1RxIsrCallback
    uart.o(i.USART2_IRQHandler) refers to stdperiphdriver.o(i.USART_GetITStatus) for USART_GetITStatus
    uart.o(i.USART2_IRQHandler) refers to stdperiphdriver.o(i.USART_ClearITPendingBit) for USART_ClearITPendingBit
    uart.o(i.USART2_IRQHandler) refers to uart.o(.data) for mg_Uart2RxIsrCallback
    uart.o(.constdata) refers to stdperiphdriver.o(i.RCC_APB2PeriphClockCmd) for RCC_APB2PeriphClockCmd
    uart.o(.constdata) refers to uartprt.o(i.UARTPRT_vUsartIrqHandler) for UARTPRT_vUsartIrqHandler
    uart.o(.constdata) refers to stdperiphdriver.o(i.RCC_APB1PeriphClockCmd) for RCC_APB1PeriphClockCmd
    i2cprt.o(i.I2C1_IRQHandler) refers to i2c.o(i.I2C_vClearTimeoutCnt) for I2C_vClearTimeoutCnt
    i2cprt.o(i.I2C1_IRQHandler) refers to stdperiphdriver.o(i.I2C_ClearITPendingBit) for I2C_ClearITPendingBit
    i2cprt.o(i.I2C1_IRQHandler) refers to i2cprt.o(i.I2CPRT_Rte_Write_P_u8I2cTxLen) for I2CPRT_Rte_Write_P_u8I2cTxLen
    i2cprt.o(i.I2C1_IRQHandler) refers to i2cprt.o(i.I2CPRT_Rte_Write_P_u8I2cRxCnt) for I2CPRT_Rte_Write_P_u8I2cRxCnt
    i2cprt.o(i.I2C1_IRQHandler) refers to i2cprt.o(i.I2CPRT_Rte_Write_P_u8I2cExpTxCnt) for I2CPRT_Rte_Write_P_u8I2cExpTxCnt
    i2cprt.o(i.I2C1_IRQHandler) refers to i2cprt.o(i.I2CPRT_Rte_Write_P_u8I2cExpRxCnt) for I2CPRT_Rte_Write_P_u8I2cExpRxCnt
    i2cprt.o(i.I2C1_IRQHandler) refers to i2cprt.o(i.I2CPRT_Rte_Write_P_u8I2cPEC) for I2CPRT_Rte_Write_P_u8I2cPEC
    i2cprt.o(i.I2C1_IRQHandler) refers to stdperiphdriver.o(i.I2C_GetTransferDirection) for I2C_GetTransferDirection
    i2cprt.o(i.I2C1_IRQHandler) refers to i2cprt.o(i.I2CPRT_SCFG_u8GetCrc8) for I2CPRT_SCFG_u8GetCrc8
    i2cprt.o(i.I2C1_IRQHandler) refers to pmbus.o(i.PMBUS_vSendData) for PMBUS_vSendData
    i2cprt.o(i.I2C1_IRQHandler) refers to i2cprt.o(i.I2CPRT_RTE_Write_B_P_CMD_WAIT_FLG) for I2CPRT_RTE_Write_B_P_CMD_WAIT_FLG
    i2cprt.o(i.I2C1_IRQHandler) refers to i2cprt.o(i.I2CPRT_vProcessReceiveData) for I2CPRT_vProcessReceiveData
    i2cprt.o(i.I2C1_IRQHandler) refers to i2cprt.o(i.I2CPRT_Rte_Read_R_u8I2cRxCnt) for I2CPRT_Rte_Read_R_u8I2cRxCnt
    i2cprt.o(i.I2C1_IRQHandler) refers to pmbus.o(i.PMBUS_vCmdCheck) for PMBUS_vCmdCheck
    i2cprt.o(i.I2C1_IRQHandler) refers to i2cprt.o(i.I2CPRT_Rte_Read_R_u8I2cPEC) for I2CPRT_Rte_Read_R_u8I2cPEC
    i2cprt.o(i.I2C1_IRQHandler) refers to i2cprt.o(i.I2CPRT_Rte_Write_P_u8TxBuf) for I2CPRT_Rte_Write_P_u8TxBuf
    i2cprt.o(i.I2C1_IRQHandler) refers to i2cprt.o(.data) for mg_u8I2cState
    i2cprt.o(i.I2C1_IRQHandler) refers to rte.o(.data) for RTE_bPEC_Enable
    i2cprt.o(i.I2C1_IRQHandler) refers to rte.o(.bss) for RTE_au8I2cRxBuf
    i2cprt.o(i.I2CPRT_RTE_Read_B_R_PEC_ERR_FLG) refers to rte.o(.data) for RTE_u16I2cStatus0
    i2cprt.o(i.I2CPRT_RTE_Write_B_P_CMD_WAIT_FLG) refers to rte.o(.data) for RTE_u16I2cStatus0
    i2cprt.o(i.I2CPRT_RTE_Write_B_P_PEC_CHANGE_FLG) refers to rte.o(.data) for RTE_u16I2cStatus0
    i2cprt.o(i.I2CPRT_RTE_Write_B_P_PEC_ERR_FLG) refers to rte.o(.data) for RTE_u16I2cStatus0
    i2cprt.o(i.I2CPRT_Rte_Read_R_u8I2cPEC) refers to rte.o(.data) for RTE_u8I2cPEC
    i2cprt.o(i.I2CPRT_Rte_Read_R_u8I2cRxCnt) refers to rte.o(.data) for RTE_u8I2cRxCnt
    i2cprt.o(i.I2CPRT_Rte_Write_P_u8I2cExpRxCnt) refers to rte.o(.data) for RTE_u8I2cExpRxCnt
    i2cprt.o(i.I2CPRT_Rte_Write_P_u8I2cExpTxCnt) refers to rte.o(.data) for RTE_u8I2cExpTxCnt
    i2cprt.o(i.I2CPRT_Rte_Write_P_u8I2cPEC) refers to rte.o(.data) for RTE_u8I2cPEC
    i2cprt.o(i.I2CPRT_Rte_Write_P_u8I2cRxCnt) refers to rte.o(.data) for RTE_u8I2cRxCnt
    i2cprt.o(i.I2CPRT_Rte_Write_P_u8I2cTxLen) refers to rte.o(.data) for RTE_u8I2cTxLen
    i2cprt.o(i.I2CPRT_Rte_Write_P_u8PecErrCmd) refers to rte.o(.data) for RTE_u8I2cPECErrCmd
    i2cprt.o(i.I2CPRT_Rte_Write_P_u8TxBuf) refers to rte.o(.bss) for RTE_au8I2cTxBuf
    i2cprt.o(i.I2CPRT_SCFG_eGetRxSTOPFlg) refers to stdperiphdriver.o(i.I2C_GetFlagStatus) for I2C_GetFlagStatus
    i2cprt.o(i.I2CPRT_SCFG_u8GetCrc8) refers to crc.o(i.CRC_u8GetCrc8) for CRC_u8GetCrc8
    i2cprt.o(i.I2CPRT_vInit) refers to i2cprt.o(i.I2CPRT_Rte_Write_P_u8TxBuf) for I2CPRT_Rte_Write_P_u8TxBuf
    i2cprt.o(i.I2CPRT_vInit) refers to i2cprt.o(i.I2CPRT_Rte_Write_P_u8I2cPEC) for I2CPRT_Rte_Write_P_u8I2cPEC
    i2cprt.o(i.I2CPRT_vInit) refers to i2cprt.o(i.I2CPRT_Rte_Write_P_u8PecErrCmd) for I2CPRT_Rte_Write_P_u8PecErrCmd
    i2cprt.o(i.I2CPRT_vInit) refers to i2cprt.o(i.I2CPRT_Rte_Write_P_u8I2cTxLen) for I2CPRT_Rte_Write_P_u8I2cTxLen
    i2cprt.o(i.I2CPRT_vInit) refers to i2cprt.o(i.I2CPRT_Rte_Write_P_u8I2cRxCnt) for I2CPRT_Rte_Write_P_u8I2cRxCnt
    i2cprt.o(i.I2CPRT_vInit) refers to i2cprt.o(i.I2CPRT_Rte_Write_P_u8I2cExpTxCnt) for I2CPRT_Rte_Write_P_u8I2cExpTxCnt
    i2cprt.o(i.I2CPRT_vInit) refers to i2cprt.o(i.I2CPRT_Rte_Write_P_u8I2cExpRxCnt) for I2CPRT_Rte_Write_P_u8I2cExpRxCnt
    i2cprt.o(i.I2CPRT_vInit) refers to rte.o(.bss) for RTE_au8I2cRxBuf
    i2cprt.o(i.I2CPRT_vInit) refers to i2cprt.o(.data) for mg_u8I2cTxCnt
    i2cprt.o(i.I2CPRT_vProcessReceiveData) refers to i2cprt.o(i.I2CPRT_SCFG_eGetRxSTOPFlg) for I2CPRT_SCFG_eGetRxSTOPFlg
    i2cprt.o(i.I2CPRT_vProcessReceiveData) refers to i2c.o(i.I2C_vDisableNvicInt) for I2C_vDisableNvicInt
    i2cprt.o(i.I2CPRT_vProcessReceiveData) refers to i2cprt.o(i.I2CPRT_Rte_Read_R_u8I2cRxCnt) for I2CPRT_Rte_Read_R_u8I2cRxCnt
    i2cprt.o(i.I2CPRT_vProcessReceiveData) refers to i2cprt.o(i.I2CPRT_Rte_Read_R_u8I2cPEC) for I2CPRT_Rte_Read_R_u8I2cPEC
    i2cprt.o(i.I2CPRT_vProcessReceiveData) refers to i2cprt.o(i.I2CPRT_RTE_Read_B_R_PEC_ERR_FLG) for I2CPRT_RTE_Read_B_R_PEC_ERR_FLG
    i2cprt.o(i.I2CPRT_vProcessReceiveData) refers to i2cprt.o(i.I2CPRT_RTE_Write_B_P_PEC_ERR_FLG) for I2CPRT_RTE_Write_B_P_PEC_ERR_FLG
    i2cprt.o(i.I2CPRT_vProcessReceiveData) refers to i2cprt.o(i.I2CPRT_RTE_Write_B_P_PEC_CHANGE_FLG) for I2CPRT_RTE_Write_B_P_PEC_CHANGE_FLG
    i2cprt.o(i.I2CPRT_vProcessReceiveData) refers to pmbus.o(i.vPMBus_HandleData) for vPMBus_HandleData
    i2cprt.o(i.I2CPRT_vProcessReceiveData) refers to i2cprt.o(i.I2CPRT_Rte_Write_P_u8PecErrCmd) for I2CPRT_Rte_Write_P_u8PecErrCmd
    i2cprt.o(i.I2CPRT_vProcessReceiveData) refers to i2cprt.o(i.I2CPRT_Rte_Write_P_u8I2cRxCnt) for I2CPRT_Rte_Write_P_u8I2cRxCnt
    i2cprt.o(i.I2CPRT_vProcessReceiveData) refers to stdperiphdriver.o(i.I2C_ClearFlag) for I2C_ClearFlag
    i2cprt.o(i.I2CPRT_vProcessReceiveData) refers to i2c.o(i.I2C_vEnableNvicInt) for I2C_vEnableNvicInt
    i2cprt.o(i.I2CPRT_vProcessReceiveData) refers to i2cprt.o(i.I2CPRT_RTE_Write_B_P_CMD_WAIT_FLG) for I2CPRT_RTE_Write_B_P_CMD_WAIT_FLG
    i2cprt.o(i.I2CPRT_vProcessReceiveData) refers to rte.o(.data) for RTE_u16I2cStatus0
    i2cprt.o(i.I2CPRT_vProcessReceiveData) refers to i2cprt.o(.data) for mg_u8I2cState
    i2cprt.o(i.I2CPRT_vProcessReceiveData) refers to rte.o(.bss) for PMBUS_tStatus
    i2cprt.o(i.I2CPRT_vSetI2cState) refers to i2cprt.o(.data) for mg_u8I2cState
    i2cprt.o(i.I2CPRT_vUpdateI2cAddress) refers to i2cprt.o(i.mg_vSetI2cAddress) for mg_vSetI2cAddress
    i2cprt.o(i.I2CPRT_vUpdateI2cAddress) refers to i2cprt.o(.data) for mg_u8I2cAddrWr
    i2cprt.o(i.I2CPRT_vUpdateI2cAddress) refers to rte.o(.data) for RTE_uDioInStatus
    i2cprt.o(.constdata) refers to stdperiphdriver.o(i.RCC_APB1PeriphClockCmd) for RCC_APB1PeriphClockCmd
    mem.o(i.MEM_SCFG_u8GetCrc8) refers to crc.o(i.CRC_u8GetCrc8) for CRC_u8GetCrc8
    mem.o(i.MEM_SCFG_vReadMem) refers to eeprom.o(i.EEPROM_u32ReadBuffer) for EEPROM_u32ReadBuffer
    mem.o(i.MEM_SCFG_vWriteMem) refers to eeprom.o(i.EEPROM_u32WriteBuffer) for EEPROM_u32WriteBuffer
    mem.o(i.MEM_u16GetOffset) refers to mem.o(.constdata) for MEM_CFG_SETUP
    mem.o(i.MEM_u16Getlenght) refers to mem.o(.constdata) for MEM_CFG_SETUP
    mem.o(i.MEM_vInit) refers to mem.o(i.mg_vReadFwRevData) for mg_vReadFwRevData
    mem.o(i.MEM_vInit) refers to mem.o(i.mg_vReadTrimData) for mg_vReadTrimData
    mem.o(i.MEM_vInit) refers to mem.o(i.mg_vReadAcOffset) for mg_vReadAcOffset
    mem.o(i.MEM_vInit) refers to mem.o(i.mg_vReadMfrInfoData) for mg_vReadMfrInfoData
    mem.o(i.MEM_vRead2EEPORM) refers to mem.o(i.MEM_SCFG_vReadMem) for MEM_SCFG_vReadMem
    mem.o(i.MEM_vRead2EEPORM) refers to mem.o(i.MEM_vWriteToMem) for MEM_vWriteToMem
    mem.o(i.MEM_vReadBlcBoxPageWrDis) refers to mem.o(i.MEM_SCFG_vReadMem) for MEM_SCFG_vReadMem
    mem.o(i.MEM_vReadFromMem) refers to mem.o(.bss) for mg_au8DataBase
    mem.o(i.MEM_vSaveData) refers to mem.o(i.mg_vSaveTrimData) for mg_vSaveTrimData
    mem.o(i.MEM_vSaveData) refers to mem.o(i.mg_vSaveFwRevData) for mg_vSaveFwRevData
    mem.o(i.MEM_vSaveData) refers to mem.o(i.mg_vSaveAcOffset) for mg_vSaveAcOffset
    mem.o(i.MEM_vSaveData) refers to mem.o(i.mg_vSaveMfrInfoData) for mg_vSaveMfrInfoData
    mem.o(i.MEM_vSaveData) refers to mem.o(.data) for u8State
    mem.o(i.MEM_vWrite2EEPORM) refers to mem.o(i.MEM_vReadFromMem) for MEM_vReadFromMem
    mem.o(i.MEM_vWrite2EEPORM) refers to mem.o(i.MEM_SCFG_vWriteMem) for MEM_SCFG_vWriteMem
    mem.o(i.MEM_vWriteBlcBoxPageWrDis) refers to mem.o(i.MEM_SCFG_vWriteMem) for MEM_SCFG_vWriteMem
    mem.o(i.MEM_vWriteToMem) refers to mem.o(.bss) for mg_au8DataBase
    mem.o(i.MONCTRL_Rte_Write_B_P_AC_OFFSET_SAVEED) refers to rte.o(.data) for RTE_uComStatus01
    mem.o(i.MONCTRL_Rte_Write_P_u16TrimV1Gain) refers to rte.o(.data) for RTE_u16TrimV1Gain
    mem.o(i.MONCTRL_Rte_Write_P_u16TrimV1GainAct) refers to rte.o(.data) for RTE_u16TrimV1GainAct
    mem.o(i.MONCTRL_Rte_Write_P_u16TrimVsbGain) refers to rte.o(.data) for RTE_u16TrimVsbGain
    mem.o(i.mg_vReadAcOffset) refers to mem.o(i.MEM_SCFG_vReadMem) for MEM_SCFG_vReadMem
    mem.o(i.mg_vReadAcOffset) refers to mem.o(i.MEM_SCFG_u8GetCrc8) for MEM_SCFG_u8GetCrc8
    mem.o(i.mg_vReadAcOffset) refers to mem.o(i.MONCTRL_Rte_Write_B_P_AC_OFFSET_SAVEED) for MONCTRL_Rte_Write_B_P_AC_OFFSET_SAVEED
    mem.o(i.mg_vReadAcOffset) refers to mem.o(.data) for mg_u8DataBuf
    mem.o(i.mg_vReadAcOffset) refers to rte.o(.bss) for RTE_Pri
    mem.o(i.mg_vReadFwRevData) refers to mem.o(i.MEM_SCFG_vReadMem) for MEM_SCFG_vReadMem
    mem.o(i.mg_vReadFwRevData) refers to mem.o(i.MEM_SCFG_u8GetCrc8) for MEM_SCFG_u8GetCrc8
    mem.o(i.mg_vReadFwRevData) refers to flash.o(i.FLASH_u32BootloaderFwVer) for FLASH_u32BootloaderFwVer
    mem.o(i.mg_vReadFwRevData) refers to mem.o(.data) for mg_u8DataBuf
    mem.o(i.mg_vReadFwRevData) refers to rte.o(.data) for RTE_u32PmbusFwRevPri1
    mem.o(i.mg_vReadMfrInfoData) refers to mem.o(i.MEM_SCFG_vReadMem) for MEM_SCFG_vReadMem
    mem.o(i.mg_vReadMfrInfoData) refers to mem.o(i.MEM_SCFG_u8GetCrc8) for MEM_SCFG_u8GetCrc8
    mem.o(i.mg_vReadMfrInfoData) refers to rte.o(.bss) for RTE_au8MfrData
    mem.o(i.mg_vReadTrimData) refers to mem.o(i.MEM_SCFG_vReadMem) for MEM_SCFG_vReadMem
    mem.o(i.mg_vReadTrimData) refers to mem.o(i.MEM_SCFG_u8GetCrc8) for MEM_SCFG_u8GetCrc8
    mem.o(i.mg_vReadTrimData) refers to mem.o(i.MONCTRL_Rte_Write_P_u16TrimV1Gain) for MONCTRL_Rte_Write_P_u16TrimV1Gain
    mem.o(i.mg_vReadTrimData) refers to mem.o(i.MONCTRL_Rte_Write_P_u16TrimV1GainAct) for MONCTRL_Rte_Write_P_u16TrimV1GainAct
    mem.o(i.mg_vReadTrimData) refers to mem.o(i.MONCTRL_Rte_Write_P_u16TrimVsbGain) for MONCTRL_Rte_Write_P_u16TrimVsbGain
    mem.o(i.mg_vReadTrimData) refers to mem.o(.data) for mg_u8DataBuf
    mem.o(i.mg_vSaveAcOffset) refers to mem.o(i.MEM_SCFG_u8GetCrc8) for MEM_SCFG_u8GetCrc8
    mem.o(i.mg_vSaveAcOffset) refers to mem.o(i.MEM_SCFG_vWriteMem) for MEM_SCFG_vWriteMem
    mem.o(i.mg_vSaveAcOffset) refers to mem.o(i.MONCTRL_Rte_Write_B_P_AC_OFFSET_SAVEED) for MONCTRL_Rte_Write_B_P_AC_OFFSET_SAVEED
    mem.o(i.mg_vSaveAcOffset) refers to rte.o(.data) for RTE_uComStatus01
    mem.o(i.mg_vSaveAcOffset) refers to rte.o(.bss) for RTE_Pri
    mem.o(i.mg_vSaveFwRevData) refers to mem.o(i.MEM_SCFG_u8GetCrc8) for MEM_SCFG_u8GetCrc8
    mem.o(i.mg_vSaveFwRevData) refers to mem.o(i.MEM_SCFG_vWriteMem) for MEM_SCFG_vWriteMem
    mem.o(i.mg_vSaveFwRevData) refers to rte.o(.data) for RTE_uIntcom1Status
    mem.o(i.mg_vSaveFwRevData) refers to mem.o(.data) for u8SavePriState
    mem.o(i.mg_vSaveMfrInfoData) refers to mem.o(i.MEM_SCFG_u8GetCrc8) for MEM_SCFG_u8GetCrc8
    mem.o(i.mg_vSaveMfrInfoData) refers to mem.o(i.MEM_SCFG_vWriteMem) for MEM_SCFG_vWriteMem
    mem.o(i.mg_vSaveMfrInfoData) refers to rte.o(.data) for PMBUS_uSysStatu0
    mem.o(i.mg_vSaveMfrInfoData) refers to rte.o(.bss) for RTE_au8MfrData
    mem.o(i.mg_vSaveTrimData) refers to mem.o(i.MEM_SCFG_u8GetCrc8) for MEM_SCFG_u8GetCrc8
    mem.o(i.mg_vSaveTrimData) refers to mem.o(i.MEM_SCFG_vWriteMem) for MEM_SCFG_vWriteMem
    mem.o(i.mg_vSaveTrimData) refers to rte.o(.data) for RTE_uPsuCtrlStatus
    hwio.o(i.HWIO_RTE_Write_B_P_54V_FAULT_ACTIVE) refers to rte.o(.data) for RTE_uDioInStatus
    hwio.o(i.HWIO_RTE_Write_B_P_I2C_ADDRESS0) refers to rte.o(.data) for RTE_uDioInStatus
    hwio.o(i.HWIO_RTE_Write_B_P_I2C_ADDRESS1) refers to rte.o(.data) for RTE_uDioInStatus
    hwio.o(i.HWIO_RTE_Write_B_P_PSON_ACTIVE) refers to rte.o(.data) for RTE_uDioInStatus
    hwio.o(i.HWIO_RTE_Write_B_P_VINOK_ENA) refers to rte.o(.data) for RTE_uDioOutStatus
    hwio.o(i.HWIO_RTE_Write_B_P_VIN_OK_ACTIVE) refers to rte.o(.data) for RTE_uDioInStatus
    hwio.o(i.HWIO_Rte_Read_B_R_COM_VIN_OK) refers to rte.o(.data) for RTE_uComStatus00
    hwio.o(i.HWIO_Rte_Read_B_R_OUTPUT_OK) refers to rte.o(.data) for RTE_uComStatus00
    hwio.o(i.HWIO_Rte_Read_B_R_SMBALLERT_ST) refers to rte.o(.data) for RTE_uComStatus00
    hwio.o(i.HWIO_Rte_Read_B_R_V1_ON) refers to rte.o(.data) for RTE_uComStatus00
    hwio.o(i.HWIO_Rte_Read_B_R_VIN_LINE_LOW) refers to rte.o(.bss) for RTE_Pri
    hwio.o(i.HWIO_Rte_Read_B_R_VIN_OK) refers to rte.o(.data) for RTE_uDioInStatus
    hwio.o(i.HWIO_vReadGpioPort) refers to port.o(i.PORT_u8ReadGpioPin) for PORT_u8ReadGpioPin
    hwio.o(i.HWIO_vReadGpioPort) refers to hwio.o(i.HWIO_RTE_Write_B_P_PSON_ACTIVE) for HWIO_RTE_Write_B_P_PSON_ACTIVE
    hwio.o(i.HWIO_vReadGpioPort) refers to hwio.o(i.HWIO_RTE_Write_B_P_54V_FAULT_ACTIVE) for HWIO_RTE_Write_B_P_54V_FAULT_ACTIVE
    hwio.o(i.HWIO_vReadGpioPort) refers to hwio.o(i.HWIO_RTE_Write_B_P_VIN_OK_ACTIVE) for HWIO_RTE_Write_B_P_VIN_OK_ACTIVE
    hwio.o(i.HWIO_vReadGpioPort) refers to hwio.o(i.HWIO_RTE_Write_B_P_I2C_ADDRESS0) for HWIO_RTE_Write_B_P_I2C_ADDRESS0
    hwio.o(i.HWIO_vReadGpioPort) refers to hwio.o(i.HWIO_RTE_Write_B_P_I2C_ADDRESS1) for HWIO_RTE_Write_B_P_I2C_ADDRESS1
    hwio.o(i.HWIO_vReadGpioPort) refers to hwio.o(.data) for u16PsOnCountSet
    hwio.o(i.HWIO_vReadGpioPort) refers to rte.o(.data) for RTE_uComStatus00
    hwio.o(i.HWIO_vSetGpioPort) refers to hwio.o(i.HWIO_Rte_Read_B_R_VIN_OK) for HWIO_Rte_Read_B_R_VIN_OK
    hwio.o(i.HWIO_vSetGpioPort) refers to hwio.o(i.HWIO_Rte_Read_B_R_COM_VIN_OK) for HWIO_Rte_Read_B_R_COM_VIN_OK
    hwio.o(i.HWIO_vSetGpioPort) refers to port.o(i.PORT_vSetGpioPin) for PORT_vSetGpioPin
    hwio.o(i.HWIO_vSetGpioPort) refers to hwio.o(i.HWIO_RTE_Write_B_P_VINOK_ENA) for HWIO_RTE_Write_B_P_VINOK_ENA
    hwio.o(i.HWIO_vSetGpioPort) refers to hwio.o(i.HWIO_Rte_Read_B_R_OUTPUT_OK) for HWIO_Rte_Read_B_R_OUTPUT_OK
    hwio.o(i.HWIO_vSetGpioPort) refers to hwio.o(i.HWIO_Rte_Read_B_R_SMBALLERT_ST) for HWIO_Rte_Read_B_R_SMBALLERT_ST
    hwio.o(i.HWIO_vSetGpioPort) refers to hwio.o(i.HWIO_Rte_Read_B_R_V1_ON) for HWIO_Rte_Read_B_R_V1_ON
    hwio.o(i.HWIO_vSetGpioPort) refers to hwio.o(i.HWIO_Rte_Read_B_R_VIN_LINE_LOW) for HWIO_Rte_Read_B_R_VIN_LINE_LOW
    hwio.o(i.HWIO_vSetGpioPort) refers to rte.o(.data) for RTE_uDioOutStatus
    uartprt.o(i.UARTPRT_vHandleRxData) refers to intcom.o(i.INTCOM_vCom1RxData) for INTCOM_vCom1RxData
    uartprt.o(i.UARTPRT_vHandleRxData) refers to intcom.o(i.INTCOM_vCom2RxData) for INTCOM_vCom2RxData
    uartprt.o(i.UARTPRT_vHandleRxData) refers to uartprt.o(.bss) for mg_uUartPrtData
    uartprt.o(i.UARTPRT_vHandleTxData) refers to intcom.o(i.INTCOM_vCom1TxData) for INTCOM_vCom1TxData
    uartprt.o(i.UARTPRT_vHandleTxData) refers to intcom.o(i.INTCOM_vCom2TxData) for INTCOM_vCom2TxData
    uartprt.o(i.UARTPRT_vHandleTxData) refers to uartprt.o(.bss) for mg_uUartPrtData
    uartprt.o(i.UARTPRT_vInit) refers to uart.o(i.UART_u16UartReadBaudrate) for UART_u16UartReadBaudrate
    uartprt.o(i.UARTPRT_vInit) refers to uartprt.o(.bss) for mg_uUartPrtData
    uartprt.o(i.UARTPRT_vInit) refers to uartprt.o(.data) for mg_u8RxTimeOutDly
    uartprt.o(i.UARTPRT_vInit) refers to uartprt.o(.constdata) for au8SlaveAddr
    uartprt.o(i.UARTPRT_vSetBootMode) refers to uartprt.o(.bss) for mg_uUartPrtData
    uartprt.o(i.UARTPRT_vTmOutMon) refers to uartprt.o(.bss) for mg_uUartPrtData
    uartprt.o(i.UARTPRT_vTxData) refers to uart.o(i.UART_u8UartReadTxEmptyFlg) for UART_u8UartReadTxEmptyFlg
    uartprt.o(i.UARTPRT_vTxData) refers to crc.o(i.CRC_u16GetCrc16) for CRC_u16GetCrc16
    uartprt.o(i.UARTPRT_vTxData) refers to uart.o(i.UART_vUartWriteTxReg) for UART_vUartWriteTxReg
    uartprt.o(i.UARTPRT_vTxData) refers to uartprt.o(.bss) for mg_uUartPrtData
    uartprt.o(i.UARTPRT_vTxData) refers to uartprt.o(.data) for mg_u16Crc
    uartprt.o(i.UARTPRT_vUsartIrqHandler) refers to uart.o(i.UART_u8UartReadRxReg) for UART_u8UartReadRxReg
    uartprt.o(i.UARTPRT_vUsartIrqHandler) refers to crc.o(i.CRC_u16GetCrc16) for CRC_u16GetCrc16
    uartprt.o(i.UARTPRT_vUsartIrqHandler) refers to uartprt.o(.bss) for mg_uUartPrtData
    uartprt.o(i.UARTPRT_vUsartIrqHandler) refers to uartprt.o(.data) for mg_u8RxTimeOutDly
    s_dam.o(i.S_DAM_SCB_vInit) refers to s_dam.o(.constdata) for S_S_DAM_CFG_CFG_SETUP
    s_dam.o(i.S_DAM_SCFG_bRead) refers to mem.o(i.MEM_vReadFromMem) for MEM_vReadFromMem
    s_dam.o(i.S_DAM_SCFG_bWrite) refers to mem.o(i.MEM_vWriteToMem) for MEM_vWriteToMem
    s_dam.o(i.S_DAM_SCFG_u32Crc) refers to crc.o(i.CRC_u16GetCrc16) for CRC_u16GetCrc16
    s_dam.o(i.S_DAM_bRead) refers to s_dam.o(i.S_DAM_mgU32HeaderIndex) for S_DAM_mgU32HeaderIndex
    s_dam.o(i.S_DAM_bRead) refers to s_dam.o(i.S_DAM_SCFG_bRead) for S_DAM_SCFG_bRead
    s_dam.o(i.S_DAM_bRead) refers to s_dam.o(i.S_DAM_SCFG_u32Crc) for S_DAM_SCFG_u32Crc
    s_dam.o(i.S_DAM_bRead) refers to s_dam.o(.constdata) for S_S_DAM_CFG_CFG_SETUP
    s_dam.o(i.S_DAM_bRead) refers to s_dam.o(.data) for u32CrcPackage
    s_dam.o(i.S_DAM_bResetRecord) refers to s_dam.o(i.S_DAM_SCFG_bWrite) for S_DAM_SCFG_bWrite
    s_dam.o(i.S_DAM_bResetRecord) refers to s_dam.o(.constdata) for S_S_DAM_CFG_CFG_SETUP
    s_dam.o(i.S_DAM_bResetRecord) refers to s_dam.o(.data) for u16Crc
    s_dam.o(i.S_DAM_bWrite) refers to s_dam.o(i.S_DAM_mgU32HeaderIndex) for S_DAM_mgU32HeaderIndex
    s_dam.o(i.S_DAM_bWrite) refers to s_dam.o(i.S_DAM_SCFG_bRead) for S_DAM_SCFG_bRead
    s_dam.o(i.S_DAM_bWrite) refers to s_dam.o(i.S_DAM_SCFG_u32Crc) for S_DAM_SCFG_u32Crc
    s_dam.o(i.S_DAM_bWrite) refers to s_dam.o(i.S_DAM_SCFG_bWrite) for S_DAM_SCFG_bWrite
    s_dam.o(i.S_DAM_bWrite) refers to s_dam.o(.data) for uSector
    s_dam.o(i.S_DAM_bWrite) refers to s_dam.o(.constdata) for S_S_DAM_CFG_CFG_SETUP
    s_dam.o(i.S_DAM_bWriteToRecord) refers to s_dam.o(i.S_DAM_mgU32HeaderIndex) for S_DAM_mgU32HeaderIndex
    s_dam.o(i.S_DAM_bWriteToRecord) refers to s_dam.o(i.S_DAM_SCFG_bRead) for S_DAM_SCFG_bRead
    s_dam.o(i.S_DAM_bWriteToRecord) refers to s_dam.o(i.S_DAM_SCFG_u32Crc) for S_DAM_SCFG_u32Crc
    s_dam.o(i.S_DAM_bWriteToRecord) refers to s_dam.o(i.S_DAM_SCFG_bWrite) for S_DAM_SCFG_bWrite
    s_dam.o(i.S_DAM_bWriteToRecord) refers to s_dam.o(.data) for uSector
    s_dam.o(i.S_DAM_bWriteToRecord) refers to s_dam.o(.constdata) for S_S_DAM_CFG_CFG_SETUP
    s_dam.o(i.S_DAM_mgU32HeaderIndex) refers to s_dam.o(.constdata) for S_S_DAM_CFG_CFG_SETUP
    s_dam.o(i.S_DAM_u32GetFirstRecordId) refers to s_dam.o(i.S_DAM_mgU32HeaderIndex) for S_DAM_mgU32HeaderIndex
    s_dam.o(i.S_DAM_u32GetFirstRecordId) refers to s_dam.o(i.S_DAM_SCFG_bRead) for S_DAM_SCFG_bRead
    s_dam.o(i.S_DAM_u32GetFirstRecordId) refers to s_dam.o(.data) for uSector
    s_dam.o(i.S_DAM_u32GetFirstRecordId) refers to s_dam.o(.constdata) for S_S_DAM_CFG_CFG_SETUP
    s_dam.o(i.S_DAM_u32GetLastRecordId) refers to s_dam.o(i.S_DAM_mgU32HeaderIndex) for S_DAM_mgU32HeaderIndex
    s_dam.o(i.S_DAM_u32GetLastRecordId) refers to s_dam.o(i.S_DAM_SCFG_bRead) for S_DAM_SCFG_bRead
    s_dam.o(i.S_DAM_u32GetLastRecordId) refers to s_dam.o(.data) for uSector
    s_dam.o(i.S_DAM_u32GetLastRecordId) refers to s_dam.o(.constdata) for S_S_DAM_CFG_CFG_SETUP
    s_dam.o(i.S_DAM_u32GetNumberOfRecords) refers to s_dam.o(i.S_DAM_mgU32HeaderIndex) for S_DAM_mgU32HeaderIndex
    s_dam.o(i.S_DAM_u32GetNumberOfRecords) refers to s_dam.o(i.S_DAM_SCFG_bRead) for S_DAM_SCFG_bRead
    s_dam.o(i.S_DAM_u32GetNumberOfRecords) refers to s_dam.o(.data) for uSector
    s_dam.o(i.S_DAM_u32GetNumberOfRecords) refers to s_dam.o(.constdata) for S_S_DAM_CFG_CFG_SETUP
    s_dam.o(i.S_DAM_vReset) refers to s_dam.o(i.S_DAM_mgU32HeaderIndex) for S_DAM_mgU32HeaderIndex
    s_dam.o(i.S_DAM_vReset) refers to s_dam.o(i.S_DAM_SCFG_bWrite) for S_DAM_SCFG_bWrite
    s_dam.o(i.S_DAM_vReset) refers to s_dam.o(.data) for uSector
    pmbus.o(i.PMBUS_Rte_Read_B_R_V1_OCP) refers to rte.o(.data) for RTE_uComStatus02
    pmbus.o(i.PMBUS_Rte_Read_R_u8PMBusCmd) refers to rte.o(.data) for RTE_u8PmbusCommand
    pmbus.o(i.PMBUS_Rte_Write_P_u8TempTestIndex) refers to rte.o(.data) for RTE_u8TempTestIndex
    pmbus.o(i.PMBUS_SCFG_u16ReadFanSpeed) refers to fanctrl.o(i.FANCTRL_u16ReadFanSpeed) for FANCTRL_u16ReadFanSpeed
    pmbus.o(i.PMBUS_SCFG_u8ReadFanBitFail) refers to fanctrl.o(i.FANCTRL_u8ReadFanBitFail) for FANCTRL_u8ReadFanBitFail
    pmbus.o(i.PMBUS_SCFG_u8ReadFanBitWarn) refers to fanctrl.o(i.FANCTRL_u8ReadFanBitWarn) for FANCTRL_u8ReadFanBitWarn
    pmbus.o(i.PMBUS_SCFG_vSetBootMode) refers to uartprt.o(i.UARTPRT_vSetBootMode) for UARTPRT_vSetBootMode
    pmbus.o(i.PMBUS_SCFG_vSetFanBlockTest) refers to fanctrl.o(i.FANCTRL_vSetFanBlockTest) for FANCTRL_vSetFanBlockTest
    pmbus.o(i.PMBUS_SCFG_vSysSetFanCtrlDuty) refers to fanctrl.o(i.FANCTRL_vSysSetFanCtrlDuty) for FANCTRL_vSysSetFanCtrlDuty
    pmbus.o(i.PMBUS_u8GetBootMcuId) refers to pmbus.o(.data) for mg_u8BootMcuId
    pmbus.o(i.PMBUS_vCheckBootMode) refers to pmbus.o(i.PMBUS_SCFG_vSetBootMode) for PMBUS_SCFG_vSetBootMode
    pmbus.o(i.PMBUS_vCheckBootMode) refers to flash.o(i.FLASH_u32ReadWordFlash) for FLASH_u32ReadWordFlash
    pmbus.o(i.PMBUS_vCheckBootMode) refers to flash.o(i.FLASH_u8ErasePageFlash) for FLASH_u8ErasePageFlash
    pmbus.o(i.PMBUS_vCheckBootMode) refers to flash.o(i.FLASH_u8WriteWordFlash) for FLASH_u8WriteWordFlash
    pmbus.o(i.PMBUS_vCheckBootMode) refers to flash.o(i.FLASH_u8WriteHalfWordFlash) for FLASH_u8WriteHalfWordFlash
    pmbus.o(i.PMBUS_vCheckBootMode) refers to rte.o(.data) for PMBUS_uSysStatu1
    pmbus.o(i.PMBUS_vCheckBootMode) refers to pmbus.o(.data) for mg_u8BootMcuId
    pmbus.o(i.PMBUS_vClearAllFault) refers to rte.o(.bss) for PSMI_tStatus
    pmbus.o(i.PMBUS_vClearAllPageFault) refers to pmbus.o(i.mg_vClearPageAllFault) for mg_vClearPageAllFault
    pmbus.o(i.PMBUS_vClearPowerOffFault) refers to rte.o(.bss) for PMBUS_tStatus
    pmbus.o(i.PMBUS_vCmdCheck) refers to pmbus.o(i.PMBUS_Rte_Read_R_u8PMBusCmd) for PMBUS_Rte_Read_R_u8PMBusCmd
    pmbus.o(i.PMBUS_vCmdCheck) refers to buffer.o(i.__ARM_common_switch8) for __ARM_common_switch8
    pmbus.o(i.PMBUS_vCmdCheck) refers to rte.o(.data) for RTE_u8I2cRxCnt
    pmbus.o(i.PMBUS_vCmdCheck) refers to rte.o(.bss) for RTE_au8I2cRxBuf
    pmbus.o(i.PMBUS_vCmdCheck) refers to pmbus.o(.constdata) for PMB_mg_au8I2cRxNumber
    pmbus.o(i.PMBUS_vCopyDebugData) refers to buffer.o(i.BUFFER_u16GetMean1ms) for BUFFER_u16GetMean1ms
    pmbus.o(i.PMBUS_vCopyDebugData) refers to tempctrl.o(i.TEMPCTRL_u16ReadAdcAvgValue) for TEMPCTRL_u16ReadAdcAvgValue
    pmbus.o(i.PMBUS_vCopyDebugData) refers to fanctrl.o(i.FANCTRL_u16ReadFanCtrlDuty) for FANCTRL_u16ReadFanCtrlDuty
    pmbus.o(i.PMBUS_vCopyDebugData) refers to pmbus.o(i.PMBUS_SCFG_u16ReadFanSpeed) for PMBUS_SCFG_u16ReadFanSpeed
    pmbus.o(i.PMBUS_vCopyDebugData) refers to rte.o(.bss) for RTE_Pri
    pmbus.o(i.PMBUS_vCopyDebugData) refers to pmbus.o(.bss) for mg_au8DebugRegBuf
    pmbus.o(i.PMBUS_vCopyDebugData) refers to rte.o(.data) for RTE_uTempOtwStatus
    pmbus.o(i.PMBUS_vCopySensorData) refers to pmbus.o(i.PMBUS_SCFG_u16ReadFanSpeed) for PMBUS_SCFG_u16ReadFanSpeed
    pmbus.o(i.PMBUS_vCopySensorData) refers to pmbus.o(i.mg_u16TxLinearDatFormatDiv128_PSMI) for mg_u16TxLinearDatFormatDiv128_PSMI
    pmbus.o(i.PMBUS_vCopySensorData) refers to tempctrl.o(i.TEMPCTRL_s16ReadTempValue) for TEMPCTRL_s16ReadTempValue
    pmbus.o(i.PMBUS_vCopySensorData) refers to pmbus.o(i.mg_u16TxLinearDatFormatDiv128_PSMI_TEMP) for mg_u16TxLinearDatFormatDiv128_PSMI_TEMP
    pmbus.o(i.PMBUS_vCopySensorData) refers to pmbus.o(.data) for mg_u8UpdSensor
    pmbus.o(i.PMBUS_vCopySensorData) refers to rte.o(.bss) for PMBUS_tData
    pmbus.o(i.PMBUS_vCopySensorData) refers to rte.o(.data) for PMBUS_uDataUpdStatus
    pmbus.o(i.PMBUS_vCopySensorData) refers to pmbus.o(i.mg_u16TxLinearDatFormatDiv128) for mg_u16TxLinearDatFormatDiv128
    pmbus.o(i.PMBUS_vCopyStatusData) refers to pmbus.o(i.PMBUS_Rte_Read_B_R_V1_OCP) for PMBUS_Rte_Read_B_R_V1_OCP
    pmbus.o(i.PMBUS_vCopyStatusData) refers to pmbus.o(i.PMBUS_SCFG_u8ReadFanBitFail) for PMBUS_SCFG_u8ReadFanBitFail
    pmbus.o(i.PMBUS_vCopyStatusData) refers to pmbus.o(i.PMBUS_SCFG_u8ReadFanBitWarn) for PMBUS_SCFG_u8ReadFanBitWarn
    pmbus.o(i.PMBUS_vCopyStatusData) refers to pmbus.o(.data) for mg_u16StatusUpdDly
    pmbus.o(i.PMBUS_vCopyStatusData) refers to rte.o(.bss) for PSMI_tStatus
    pmbus.o(i.PMBUS_vCopyStatusData) refers to rte.o(.data) for PMBUS_uDataUpdStatus1
    pmbus.o(i.PMBUS_vCopyStatusData) refers to pmbus.o(.bss) for mg_sSmbMask
    pmbus.o(i.PMBUS_vInit) refers to rte.o(.data) for PMBUS_uOperation
    pmbus.o(i.PMBUS_vInit) refers to rte.o(.bss) for PMBUS_tStatus
    pmbus.o(i.PMBUS_vInit) refers to pmbus.o(.data) for mg_u16UnlockDebugKey
    pmbus.o(i.PMBUS_vInit) refers to pmbus.o(.bss) for mg_sSmbMask
    pmbus.o(i.PMBUS_vSaveBlackBoxData2Buff) refers to cali.o(i.CALI_vCalibrateV1) for CALI_vCalibrateV1
    pmbus.o(i.PMBUS_vSaveBlackBoxData2Buff) refers to pmbus.o(i.mg_u16TxLinearDatFormatDiv128) for mg_u16TxLinearDatFormatDiv128
    pmbus.o(i.PMBUS_vSaveBlackBoxData2Buff) refers to rte.o(.bss) for PMBUS_tData
    pmbus.o(i.PMBUS_vSaveBlackBoxVinData2Buff) refers to pmbus.o(i.mg_u16TxLinearDatFormatDiv128) for mg_u16TxLinearDatFormatDiv128
    pmbus.o(i.PMBUS_vSaveBlackBoxVinData2Buff) refers to rte.o(.bss) for PMBUS_tData
    pmbus.o(i.PMBUS_vSendData) refers to pmbus.o(i.PMBUS_Rte_Read_R_u8PMBusCmd) for PMBUS_Rte_Read_R_u8PMBusCmd
    pmbus.o(i.PMBUS_vSendData) refers to rte.o(.data) for RTE_u8I2cTxLen
    pmbus.o(i.PMBUS_vSendData) refers to rte.o(.bss) for PMBUS_tData
    pmbus.o(i.PMBUS_vSendData) refers to pmbus.o(.constdata) for PMB_mg_au8_PROJECT_ID
    pmbus.o(i.PMBUS_vSendData) refers to pmbus.o(.data) for mg_u16UnlockDebugKey
    pmbus.o(i.PMBUS_vSendData) refers to pmbus.o(.bss) for mg_au8DebugRegBuf
    pmbus.o(i.mg_u16TxLinearDatFormatDiv128_PSMI) refers to pmbus.o(i.u16Ones) for u16Ones
    pmbus.o(i.mg_vClearFaultBit) refers to fanctrl.o(i.FANCTRL_u8WriteFanBitFail) for FANCTRL_u8WriteFanBitFail
    pmbus.o(i.mg_vClearFaultBit) refers to fanctrl.o(i.FANCTRL_u8WriteFanBitWarn) for FANCTRL_u8WriteFanBitWarn
    pmbus.o(i.mg_vClearFaultBit) refers to rte.o(.data) for RTE_u8PmbusCommand
    pmbus.o(i.mg_vClearFaultBit) refers to pmbus.o(.data) for u8RxBufOfst
    pmbus.o(i.mg_vClearFaultBit) refers to rte.o(.bss) for RTE_au8I2cRxBuf
    pmbus.o(i.mg_vClearPage00Fault) refers to rte.o(.bss) for PMBUS_tStatus
    pmbus.o(i.mg_vClearPage00Fault) refers to rte.o(.data) for RTE_uComStatus02
    pmbus.o(i.mg_vClearPage01Fault) refers to rte.o(.bss) for PMBUS_tStatus
    pmbus.o(i.mg_vClearPage01Fault) refers to rte.o(.data) for RTE_uComStatus01
    pmbus.o(i.mg_vClearPageAllFault) refers to pmbus.o(i.mg_vClearPage00Fault) for mg_vClearPage00Fault
    pmbus.o(i.mg_vClearPageAllFault) refers to pmbus.o(i.mg_vClearPage01Fault) for mg_vClearPage01Fault
    pmbus.o(i.mg_vSendQuerydata) refers to rte.o(.bss) for RTE_au8I2cRxBuf
    pmbus.o(i.mg_vSendQuerydata) refers to rte.o(.data) for RTE_u8I2cTxLen
    pmbus.o(i.mg_vSendQuerydata) refers to pmbus.o(.data) for mg_u8Page
    pmbus.o(i.mg_vSendQuerydata) refers to pmbus.o(.constdata) for PMB_mg_au8ByteFormatP0
    pmbus.o(i.mg_vSendSmbMaskdata) refers to buffer.o(i.__ARM_common_switch8) for __ARM_common_switch8
    pmbus.o(i.mg_vSendSmbMaskdata) refers to rte.o(.bss) for RTE_au8I2cRxBuf
    pmbus.o(i.mg_vSendSmbMaskdata) refers to rte.o(.data) for RTE_u8I2cTxLen
    pmbus.o(i.mg_vSendSmbMaskdata) refers to pmbus.o(.data) for mg_u8Page
    pmbus.o(i.mg_vSendSmbMaskdata) refers to pmbus.o(.bss) for mg_sP0SmbMask
    pmbus.o(i.vPMBus_HandleData) refers to pmbus.o(i.PMBUS_Rte_Read_R_u8PMBusCmd) for PMBUS_Rte_Read_R_u8PMBusCmd
    pmbus.o(i.vPMBus_HandleData) refers to buffer.o(i.__ARM_common_switch8) for __ARM_common_switch8
    pmbus.o(i.vPMBus_HandleData) refers to pmbus.o(i.PMBUS_SCFG_vSysSetFanCtrlDuty) for PMBUS_SCFG_vSysSetFanCtrlDuty
    pmbus.o(i.vPMBus_HandleData) refers to pmbus.o(i.PMBUS_SCFG_vSetFanBlockTest) for PMBUS_SCFG_vSetFanBlockTest
    pmbus.o(i.vPMBus_HandleData) refers to pmbus.o(i.mg_vClearFaultBit) for mg_vClearFaultBit
    pmbus.o(i.vPMBus_HandleData) refers to pmbus.o(i.PMBUS_Rte_Write_P_u8TempTestIndex) for PMBUS_Rte_Write_P_u8TempTestIndex
    pmbus.o(i.vPMBus_HandleData) refers to rte.o(.bss) for RTE_au8I2cRxBuf
    pmbus.o(i.vPMBus_HandleData) refers to pmbus.o(.data) for u16SysCmdDuty
    pmbus.o(i.vPMBus_HandleData) refers to rte.o(.data) for PMBUS_uSysStatu0
    pmbus.o(i.vPMBus_HandleData) refers to blabox.o(i.BLABOX_vSetRealTimeClockDataSystemBlackbox) for BLABOX_vSetRealTimeClockDataSystemBlackbox
    pmbus.o(i.vPMBus_HandleData) refers to blabox.o(i.BLABOX_vMFR_SystemBlackBox) for BLABOX_vMFR_SystemBlackBox
    pmbus.o(i.vPMBus_HandleData) refers to blabox.o(i.BLABOX_vSetEnableBlackbox) for BLABOX_vSetEnableBlackbox
    pmbus.o(i.vPMBus_HandleData) refers to blabox.o(i.BLABOX_vMFR_ClearBlackBox) for BLABOX_vMFR_ClearBlackBox
    pmbus.o(i.vPMBus_HandleData) refers to pmbus.o(.constdata) for PMB_mg_au8_BOOT_FW_ID
    fanctrl.o(i.FANCTRL_RTE_Read_B_R_SYS_UNLOCK) refers to rte.o(.data) for PMBUS_uSysStatu0
    fanctrl.o(i.FANCTRL_Rte_Read_R_s32TempDiff) refers to fanctrl.o(i.FANCTRL_SCFG_s16ReadAmbTemp) for FANCTRL_SCFG_s16ReadAmbTemp
    fanctrl.o(i.FANCTRL_Rte_Read_R_s32TempDiff) refers to fanctrl.o(i.FANCTRL_SCFG_s16ReadPriPfc) for FANCTRL_SCFG_s16ReadPriPfc
    fanctrl.o(i.FANCTRL_Rte_Read_R_s32TempDiff) refers to fanctrl.o(i.FANCTRL_SCFG_s16ReadPriLlc) for FANCTRL_SCFG_s16ReadPriLlc
    fanctrl.o(i.FANCTRL_Rte_Read_R_s32TempDiff) refers to fanctrl.o(i.FANCTRL_SCFG_s16ReadSecRecdiode) for FANCTRL_SCFG_s16ReadSecRecdiode
    fanctrl.o(i.FANCTRL_Rte_Read_R_s32TempDiff) refers to fanctrl.o(i.FANCTRL_SCFG_s16ReadOutTemp) for FANCTRL_SCFG_s16ReadOutTemp
    fanctrl.o(i.FANCTRL_SCFG_s16ReadAmbTemp) refers to tempctrl.o(i.TEMPCTRL_s16ReadTempValue) for TEMPCTRL_s16ReadTempValue
    fanctrl.o(i.FANCTRL_SCFG_s16ReadOutTemp) refers to tempctrl.o(i.TEMPCTRL_s16ReadTempValue) for TEMPCTRL_s16ReadTempValue
    fanctrl.o(i.FANCTRL_SCFG_s16ReadPriLlc) refers to tempctrl.o(i.TEMPCTRL_s16ReadTempValue) for TEMPCTRL_s16ReadTempValue
    fanctrl.o(i.FANCTRL_SCFG_s16ReadPriPfc) refers to tempctrl.o(i.TEMPCTRL_s16ReadTempValue) for TEMPCTRL_s16ReadTempValue
    fanctrl.o(i.FANCTRL_SCFG_s16ReadSecRecdiode) refers to tempctrl.o(i.TEMPCTRL_s16ReadTempValue) for TEMPCTRL_s16ReadTempValue
    fanctrl.o(i.FANCTRL_u16ReadFanCtrlDuty) refers to fanctrl.o(.bss) for mg_sFan
    fanctrl.o(i.FANCTRL_u16ReadFanSpeed) refers to fanctrl.o(.bss) for mg_sFan
    fanctrl.o(i.FANCTRL_u8ReadFanBitFail) refers to fanctrl.o(.bss) for mg_sFan
    fanctrl.o(i.FANCTRL_u8ReadFanBitOvrd) refers to fanctrl.o(.bss) for mg_sFan
    fanctrl.o(i.FANCTRL_u8ReadFanBitWarn) refers to fanctrl.o(.bss) for mg_sFan
    fanctrl.o(i.FANCTRL_u8WriteFanBitFail) refers to fanctrl.o(.bss) for mg_sFan
    fanctrl.o(i.FANCTRL_u8WriteFanBitWarn) refers to fanctrl.o(.bss) for mg_sFan
    fanctrl.o(i.FANCTRL_vFanCtrl) refers to fanctrl.o(i.mg_AdjSpeed) for mg_AdjSpeed
    fanctrl.o(i.FANCTRL_vFanCtrl) refers to fanctrl.o(.data) for u16count
    fanctrl.o(i.FANCTRL_vFanCtrl) refers to rte.o(.data) for PMBUS_uSysStatu1
    fanctrl.o(i.FANCTRL_vFanCtrl) refers to fanctrl.o(.bss) for mg_sFan
    fanctrl.o(i.FANCTRL_vFanSpeedCalc) refers to fanctrl.o(.data) for u8Cnt
    fanctrl.o(i.FANCTRL_vFanSpeedCalc) refers to rte.o(.bss) for RTE_Pri
    fanctrl.o(i.FANCTRL_vFanSpeedCalc) refers to fanctrl.o(.bss) for mg_sFan
    fanctrl.o(i.FANCTRL_vFanSpeedCalc) refers to rte.o(.data) for RTE_uDioInStatus
    fanctrl.o(i.FANCTRL_vInit) refers to fanctrl.o(.bss) for mg_sFan
    fanctrl.o(i.FANCTRL_vSetFanBlockTest) refers to fanctrl.o(.data) for mg_u8IsFanBlockTest
    fanctrl.o(i.FANCTRL_vSysSetFanCtrlDuty) refers to fanctrl.o(.bss) for mg_sFan
    fanctrl.o(i.mg_AdjSpeed) refers to fanctrl.o(i.FANCTRL_Rte_Read_R_s32TempDiff) for FANCTRL_Rte_Read_R_s32TempDiff
    fanctrl.o(i.mg_AdjSpeed) refers to tempctrl.o(i.TEMPCTRL_s16ReadTempValue) for TEMPCTRL_s16ReadTempValue
    fanctrl.o(i.mg_AdjSpeed) refers to buffer.o(i.BUFFER_u16GetMean10ms) for BUFFER_u16GetMean10ms
    fanctrl.o(i.mg_AdjSpeed) refers to fanctrl.o(i.FANCTRL_RTE_Read_B_R_SYS_UNLOCK) for FANCTRL_RTE_Read_B_R_SYS_UNLOCK
    fanctrl.o(i.mg_AdjSpeed) refers to uidiv.o(.text) for __aeabi_uidivmod
    fanctrl.o(i.mg_AdjSpeed) refers to rte.o(.data) for RTE_u16ComDebug
    fanctrl.o(i.mg_AdjSpeed) refers to fanctrl.o(.bss) for mg_sFan
    fanctrl.o(i.mg_AdjSpeed) refers to fanctrl.o(.data) for mg_u8IsFanBlockTest
    fanctrl.o(.constdata) refers to fanctrl.o(i.FANCTRL_SCFG_u8RdFan1Status) for FANCTRL_SCFG_u8RdFan1Status
    fanctrl.o(.constdata) refers to fanctrl.o(i.FANCTRL_SCFG_vSetFan1Duty) for FANCTRL_SCFG_vSetFan1Duty
    fanctrl.o(.constdata) refers to fanctrl.o(i.FANCTRL_SCFG_u8RdFan2Status) for FANCTRL_SCFG_u8RdFan2Status
    fanctrl.o(.constdata) refers to fanctrl.o(i.FANCTRL_SCFG_vSetFan2Duty) for FANCTRL_SCFG_vSetFan2Duty
    monctrl.o(i.INTCOM_RTE_Read_B_R_VIN_OK_PRI) refers to rte.o(.bss) for RTE_Pri
    monctrl.o(i.MONCTRL_RTE_Read_B_R_NO_VIN) refers to rte.o(.data) for RTE_uComStatus00
    monctrl.o(i.MONCTRL_RTE_Read_B_R_REMOTE_ON) refers to rte.o(.data) for RTE_uComToSecStatus
    monctrl.o(i.MONCTRL_RTE_Read_B_R_VIN_OV) refers to rte.o(.data) for RTE_uComStatus01
    monctrl.o(i.MONCTRL_RTE_Read_B_R_VIN_UV) refers to rte.o(.data) for RTE_uComStatus01
    monctrl.o(i.MONCTRL_RTE_Read_B_R_VSB_MONI_EN) refers to rte.o(.data) for RTE_uComStatus00
    monctrl.o(i.MONCTRL_RTE_Read_B_R_VSB_ON_DIO) refers to rte.o(.data) for RTE_uDioOutStatus
    monctrl.o(i.MONCTRL_RTE_Read_R_vVsbLinear) refers to rte.o(.data) for RTE_u16VoutIntVsbFast
    monctrl.o(i.MONCTRL_RTE_Write_B_P_ANY_NTC_FAULT) refers to rte.o(.data) for RTE_uComStatus01
    monctrl.o(i.MONCTRL_RTE_Write_B_P_CLEAR_LATCH_FAULT) refers to rte.o(.data) for RTE_uComToSecStatus
    monctrl.o(i.MONCTRL_RTE_Write_B_P_NO_VIN) refers to rte.o(.data) for RTE_uComStatus00
    monctrl.o(i.MONCTRL_RTE_Write_B_P_REMOTE_ON) refers to rte.o(.data) for RTE_uComToSecStatus
    monctrl.o(i.MONCTRL_RTE_Write_B_P_VIN_OCW) refers to rte.o(.data) for RTE_uComStatus01
    monctrl.o(i.MONCTRL_RTE_Write_B_P_VIN_OK) refers to rte.o(.data) for RTE_uComStatus00
    monctrl.o(i.MONCTRL_RTE_Write_B_P_VIN_OV) refers to rte.o(.data) for RTE_uComStatus01
    monctrl.o(i.MONCTRL_RTE_Write_B_P_VIN_UV) refers to rte.o(.data) for RTE_uComStatus01
    monctrl.o(i.MONCTRL_RTE_Write_B_P_VIN_UVW) refers to rte.o(.data) for RTE_uComStatus01
    monctrl.o(i.MONCTRL_RTE_Write_B_P_VSB_LATCH) refers to rte.o(.data) for RTE_uComStatus01
    monctrl.o(i.MONCTRL_RTE_Write_B_P_VSB_OCP) refers to rte.o(.data) for RTE_uComStatus01
    monctrl.o(i.MONCTRL_RTE_Write_B_P_VSB_OCW) refers to rte.o(.data) for RTE_uComStatus01
    monctrl.o(i.MONCTRL_RTE_Write_B_P_VSB_OVP) refers to rte.o(.data) for RTE_uComStatus01
    monctrl.o(i.MONCTRL_RTE_Write_B_P_VSB_OVW) refers to rte.o(.data) for RTE_uComStatus01
    monctrl.o(i.MONCTRL_RTE_Write_B_P_VSB_UVP) refers to rte.o(.data) for RTE_uComStatus01
    monctrl.o(i.MONCTRL_RTE_Write_B_P_VSB_UVW) refers to rte.o(.data) for RTE_uComStatus01
    monctrl.o(i.MONCTRL_RTE_Write_P_u8AcLineStatus) refers to rte.o(.data) for RTE_u8AcLineStatus
    monctrl.o(i.MONCTRL_Rte_Write_B_P_STB_MODE) refers to rte.o(.data) for PMBUS_uSysStatu1
    monctrl.o(i.MONCTRL_vAxuModeDetect) refers to monctrl.o(i.MONCTRL_RTE_Write_P_u8AcLineStatus) for MONCTRL_RTE_Write_P_u8AcLineStatus
    monctrl.o(i.MONCTRL_vAxuModeDetect) refers to rte.o(.data) for RTE_uIntcom1Status
    monctrl.o(i.MONCTRL_vAxuModeDetect) refers to monctrl.o(.data) for u16AuxModeCnt
    monctrl.o(i.MONCTRL_vCheckStatusReset) refers to monctrl.o(i.MONCTRL_RTE_Read_B_R_REMOTE_ON) for MONCTRL_RTE_Read_B_R_REMOTE_ON
    monctrl.o(i.MONCTRL_vCheckStatusReset) refers to monctrl.o(i.MONCTRL_RTE_Read_B_R_NO_VIN) for MONCTRL_RTE_Read_B_R_NO_VIN
    monctrl.o(i.MONCTRL_vCheckStatusReset) refers to pmbus.o(i.PMBUS_vClearAllFault) for PMBUS_vClearAllFault
    monctrl.o(i.MONCTRL_vCheckStatusReset) refers to monctrl.o(i.MONCTRL_RTE_Write_B_P_VSB_LATCH) for MONCTRL_RTE_Write_B_P_VSB_LATCH
    monctrl.o(i.MONCTRL_vCheckStatusReset) refers to monctrl.o(i.MONCTRL_RTE_Write_B_P_VSB_OVP) for MONCTRL_RTE_Write_B_P_VSB_OVP
    monctrl.o(i.MONCTRL_vCheckStatusReset) refers to monctrl.o(i.MONCTRL_RTE_Write_B_P_VSB_UVP) for MONCTRL_RTE_Write_B_P_VSB_UVP
    monctrl.o(i.MONCTRL_vCheckStatusReset) refers to monctrl.o(i.MONCTRL_RTE_Write_B_P_VSB_OCP) for MONCTRL_RTE_Write_B_P_VSB_OCP
    monctrl.o(i.MONCTRL_vCheckStatusReset) refers to monctrl.o(i.MONCTRL_RTE_Write_B_P_VIN_UV) for MONCTRL_RTE_Write_B_P_VIN_UV
    monctrl.o(i.MONCTRL_vCheckStatusReset) refers to monctrl.o(i.MONCTRL_RTE_Write_B_P_VIN_OV) for MONCTRL_RTE_Write_B_P_VIN_OV
    monctrl.o(i.MONCTRL_vCheckStatusReset) refers to monctrl.o(i.MONCTRL_RTE_Write_B_P_CLEAR_LATCH_FAULT) for MONCTRL_RTE_Write_B_P_CLEAR_LATCH_FAULT
    monctrl.o(i.MONCTRL_vCheckStatusReset) refers to monctrl.o(.data) for ePsonState
    monctrl.o(i.MONCTRL_vCheckStatusReset) refers to rte.o(.data) for RTE_uComStatus01
    monctrl.o(i.MONCTRL_vCheckStatusReset) refers to rte.o(.bss) for RTE_Sec
    monctrl.o(i.MONCTRL_vCheckVsbOvp) refers to monctrl.o(i.MONCTRL_RTE_Read_R_vVsbLinear) for MONCTRL_RTE_Read_R_vVsbLinear
    monctrl.o(i.MONCTRL_vCheckVsbOvp) refers to monctrl.o(i.MONCTRL_RTE_Read_B_R_VSB_MONI_EN) for MONCTRL_RTE_Read_B_R_VSB_MONI_EN
    monctrl.o(i.MONCTRL_vCheckVsbOvp) refers to monctrl.o(i.MONCTRL_RTE_Write_B_P_VSB_LATCH) for MONCTRL_RTE_Write_B_P_VSB_LATCH
    monctrl.o(i.MONCTRL_vCheckVsbOvp) refers to monctrl.o(i.MONCTRL_RTE_Write_B_P_VSB_OVP) for MONCTRL_RTE_Write_B_P_VSB_OVP
    monctrl.o(i.MONCTRL_vCheckVsbOvp) refers to monctrl.o(i.MONCTRL_RTE_Write_B_P_VSB_OVW) for MONCTRL_RTE_Write_B_P_VSB_OVW
    monctrl.o(i.MONCTRL_vCheckVsbOvp) refers to monctrl.o(.bss) for mg_sVsbMonitor
    monctrl.o(i.MONCTRL_vInit) refers to monctrl.o(.bss) for mg_sVsbMonitor
    monctrl.o(i.MONCTRL_vUpdateStatus) refers to monctrl.o(i.MONCTRL_RTE_Write_B_P_ANY_NTC_FAULT) for MONCTRL_RTE_Write_B_P_ANY_NTC_FAULT
    monctrl.o(i.MONCTRL_vUpdateStatus) refers to monctrl.o(i.MONCTRL_RTE_Write_B_P_REMOTE_ON) for MONCTRL_RTE_Write_B_P_REMOTE_ON
    monctrl.o(i.MONCTRL_vUpdateStatus) refers to monctrl.o(i.MONCTRL_RTE_Read_B_R_VIN_UV) for MONCTRL_RTE_Read_B_R_VIN_UV
    monctrl.o(i.MONCTRL_vUpdateStatus) refers to monctrl.o(i.MONCTRL_RTE_Read_B_R_VIN_OV) for MONCTRL_RTE_Read_B_R_VIN_OV
    monctrl.o(i.MONCTRL_vUpdateStatus) refers to monctrl.o(i.MONCTRL_Rte_Write_B_P_STB_MODE) for MONCTRL_Rte_Write_B_P_STB_MODE
    monctrl.o(i.MONCTRL_vUpdateStatus) refers to monctrl.o(i.MONCTRL_RTE_Read_B_R_NO_VIN) for MONCTRL_RTE_Read_B_R_NO_VIN
    monctrl.o(i.MONCTRL_vUpdateStatus) refers to rte.o(.data) for PMBUS_uSysStatu0
    monctrl.o(i.MONCTRL_vUpdateStatus) refers to rte.o(.bss) for RTE_Pri
    monctrl.o(i.MONCTRL_vUpdateStatus) refers to monctrl.o(.data) for u16NtcFault
    monctrl.o(i.MONCTRL_vVin) refers to monctrl.o(i.MONCTRL_RTE_Write_B_P_VIN_OCW) for MONCTRL_RTE_Write_B_P_VIN_OCW
    monctrl.o(i.MONCTRL_vVin) refers to monctrl.o(i.INTCOM_RTE_Read_B_R_VIN_OK_PRI) for INTCOM_RTE_Read_B_R_VIN_OK_PRI
    monctrl.o(i.MONCTRL_vVin) refers to monctrl.o(i.MONCTRL_RTE_Write_B_P_VIN_UV) for MONCTRL_RTE_Write_B_P_VIN_UV
    monctrl.o(i.MONCTRL_vVin) refers to monctrl.o(i.MONCTRL_RTE_Write_B_P_VIN_UVW) for MONCTRL_RTE_Write_B_P_VIN_UVW
    monctrl.o(i.MONCTRL_vVin) refers to pmbus.o(i.PMBUS_vSaveBlackBoxVinData2Buff) for PMBUS_vSaveBlackBoxVinData2Buff
    monctrl.o(i.MONCTRL_vVin) refers to monctrl.o(i.MONCTRL_RTE_Write_B_P_VIN_OV) for MONCTRL_RTE_Write_B_P_VIN_OV
    monctrl.o(i.MONCTRL_vVin) refers to monctrl.o(i.MONCTRL_RTE_Write_B_P_NO_VIN) for MONCTRL_RTE_Write_B_P_NO_VIN
    monctrl.o(i.MONCTRL_vVin) refers to monctrl.o(i.MONCTRL_RTE_Read_B_R_VIN_UV) for MONCTRL_RTE_Read_B_R_VIN_UV
    monctrl.o(i.MONCTRL_vVin) refers to monctrl.o(i.MONCTRL_RTE_Read_B_R_VIN_OV) for MONCTRL_RTE_Read_B_R_VIN_OV
    monctrl.o(i.MONCTRL_vVin) refers to monctrl.o(i.MONCTRL_RTE_Write_B_P_VIN_OK) for MONCTRL_RTE_Write_B_P_VIN_OK
    monctrl.o(i.MONCTRL_vVin) refers to monctrl.o(i.MONCTRL_RTE_Read_B_R_NO_VIN) for MONCTRL_RTE_Read_B_R_NO_VIN
    monctrl.o(i.MONCTRL_vVin) refers to monctrl.o(i.MONCTRL_RTE_Write_P_u8AcLineStatus) for MONCTRL_RTE_Write_P_u8AcLineStatus
    monctrl.o(i.MONCTRL_vVin) refers to rte.o(.data) for RTE_uIntcom1Status
    monctrl.o(i.MONCTRL_vVin) refers to rte.o(.bss) for PMBUS_tData
    monctrl.o(i.MONCTRL_vVin) refers to monctrl.o(.data) for u16VinTypeAOld
    monctrl.o(i.MONCTRL_vVsbOutput) refers to monctrl.o(i.MONCTRL_RTE_Read_R_vVsbLinear) for MONCTRL_RTE_Read_R_vVsbLinear
    monctrl.o(i.MONCTRL_vVsbOutput) refers to monctrl.o(i.MONCTRL_RTE_Read_B_R_VSB_ON_DIO) for MONCTRL_RTE_Read_B_R_VSB_ON_DIO
    monctrl.o(i.MONCTRL_vVsbOutput) refers to monctrl.o(i.MONCTRL_RTE_Read_B_R_VSB_MONI_EN) for MONCTRL_RTE_Read_B_R_VSB_MONI_EN
    monctrl.o(i.MONCTRL_vVsbOutput) refers to monctrl.o(i.MONCTRL_RTE_Write_B_P_VSB_OVW) for MONCTRL_RTE_Write_B_P_VSB_OVW
    monctrl.o(i.MONCTRL_vVsbOutput) refers to monctrl.o(i.MONCTRL_RTE_Write_B_P_VSB_LATCH) for MONCTRL_RTE_Write_B_P_VSB_LATCH
    monctrl.o(i.MONCTRL_vVsbOutput) refers to monctrl.o(i.MONCTRL_RTE_Write_B_P_VSB_UVP) for MONCTRL_RTE_Write_B_P_VSB_UVP
    monctrl.o(i.MONCTRL_vVsbOutput) refers to monctrl.o(i.MONCTRL_RTE_Write_B_P_VSB_UVW) for MONCTRL_RTE_Write_B_P_VSB_UVW
    monctrl.o(i.MONCTRL_vVsbOutput) refers to monctrl.o(i.MONCTRL_RTE_Write_B_P_VSB_OCP) for MONCTRL_RTE_Write_B_P_VSB_OCP
    monctrl.o(i.MONCTRL_vVsbOutput) refers to monctrl.o(i.MONCTRL_RTE_Write_B_P_VSB_OCW) for MONCTRL_RTE_Write_B_P_VSB_OCW
    monctrl.o(i.MONCTRL_vVsbOutput) refers to rte.o(.data) for RTE_u16IoutVsbFast
    monctrl.o(i.MONCTRL_vVsbOutput) refers to monctrl.o(.data) for u8VsbPreState
    monctrl.o(i.MONCTRL_vVsbOutput) refers to monctrl.o(.bss) for mg_sVsbMonitor
    psuctrl.o(i.PSUCTRL_RTE_Read_B_R_AUX_MODE) refers to rte.o(.data) for PMBUS_uSysStatu0
    psuctrl.o(i.PSUCTRL_RTE_Read_B_R_REMOTE_ON) refers to rte.o(.data) for RTE_uComToSecStatus
    psuctrl.o(i.PSUCTRL_RTE_Read_B_R_STA_VSB_ON) refers to rte.o(.data) for RTE_uComStatus00
    psuctrl.o(i.PSUCTRL_RTE_Read_B_R_V1_FAULT_ACTIVE) refers to rte.o(.data) for RTE_uDioInStatus
    psuctrl.o(i.PSUCTRL_RTE_Read_B_R_V1_OCP) refers to rte.o(.data) for RTE_uComStatus02
    psuctrl.o(i.PSUCTRL_RTE_Read_B_R_V1_OVP) refers to rte.o(.data) for RTE_uComStatus02
    psuctrl.o(i.PSUCTRL_RTE_Read_B_R_V1_UVP) refers to rte.o(.data) for RTE_uComStatus02
    psuctrl.o(i.PSUCTRL_RTE_Read_B_R_VIN_OK) refers to rte.o(.data) for RTE_uComStatus00
    psuctrl.o(i.PSUCTRL_RTE_Read_B_R_VSB_OCP) refers to rte.o(.data) for RTE_uComStatus01
    psuctrl.o(i.PSUCTRL_Rte_Read_B_R_TEMP_ANY_OTP) refers to rte.o(.data) for RTE_uTempOtpStatus
    psuctrl.o(i.PSUCTRL_Rte_Write_B_P_OUTPUT_OK) refers to rte.o(.data) for RTE_uComStatus00
    psuctrl.o(i.PSUCTRL_Rte_Write_B_P_STA_V1_ON) refers to rte.o(.data) for RTE_uComStatus00
    psuctrl.o(i.PSUCTRL_Rte_Write_B_P_STA_VSB_ON) refers to rte.o(.data) for RTE_uComStatus00
    psuctrl.o(i.PSUCTRL_Rte_Write_B_P_TURN_ON_MAIN) refers to rte.o(.data) for RTE_uComToSecStatus
    psuctrl.o(i.PSUCTRL_Rte_Write_B_P_V1_MONI_EN) refers to rte.o(.data) for RTE_uComStatus00
    psuctrl.o(i.PSUCTRL_Rte_Write_B_P_VSB_MONI_EN) refers to rte.o(.data) for RTE_uComStatus00
    psuctrl.o(i.PSUCTRL_Rte_Write_P_u16TrimV1Gain) refers to rte.o(.data) for RTE_u16TrimV1Gain
    psuctrl.o(i.PSUCTRL_Rte_Write_P_u16TrimV1GainAct) refers to rte.o(.data) for RTE_u16TrimV1GainAct
    psuctrl.o(i.PSUCTRL_Rte_Write_P_u16TrimV1GainOvp) refers to rte.o(.data) for RTE_u16TrimV1GainOvp
    psuctrl.o(i.PSUCTRL_SCFG_vVsbOvpDuty) refers to pwm.o(i.PWM_vPwmDutyUpdate) for PWM_vPwmDutyUpdate
    psuctrl.o(i.PSUCTRL_SCFG_vVsbSetOn) refers to port.o(i.PORT_vSetGpioPin) for PORT_vSetGpioPin
    psuctrl.o(i.PSUCTRL_SCFG_vVsbSetOn) refers to port.o(i.PORT_vSetGpioMode) for PORT_vSetGpioMode
    psuctrl.o(i.PSUCTRL_SCFG_vVsbSetOn) refers to rte.o(.data) for RTE_uDioOutStatus
    psuctrl.o(i.PSUCTRL_vInit) refers to psuctrl.o(.data) for mg_VsbState
    psuctrl.o(i.PSUCTRL_vTrim) refers to psuctrl.o(i.PSUCTRL_SCFG_vVsbOvpDuty) for PSUCTRL_SCFG_vVsbOvpDuty
    psuctrl.o(i.PSUCTRL_vTrim) refers to pwm.o(i.PWM_vPwmDutyUpdate) for PWM_vPwmDutyUpdate
    psuctrl.o(i.PSUCTRL_vTrim) refers to psuctrl.o(i.PSUCTRL_Rte_Write_P_u16TrimV1GainOvp) for PSUCTRL_Rte_Write_P_u16TrimV1GainOvp
    psuctrl.o(i.PSUCTRL_vTrim) refers to psuctrl.o(i.PSUCTRL_Rte_Write_P_u16TrimV1GainAct) for PSUCTRL_Rte_Write_P_u16TrimV1GainAct
    psuctrl.o(i.PSUCTRL_vTrim) refers to psuctrl.o(i.PSUCTRL_Rte_Write_P_u16TrimV1Gain) for PSUCTRL_Rte_Write_P_u16TrimV1Gain
    psuctrl.o(i.PSUCTRL_vTrim) refers to rte.o(.data) for RTE_uPsuCtrlStatus
    psuctrl.o(i.PSUCTRL_vTrim) refers to psuctrl.o(.data) for u16TrimVsbOvpGainAct
    psuctrl.o(i.PSUCTRL_vV1Out) refers to psuctrl.o(i.PSUCTRL_Rte_Write_B_P_STA_V1_ON) for PSUCTRL_Rte_Write_B_P_STA_V1_ON
    psuctrl.o(i.PSUCTRL_vV1Out) refers to psuctrl.o(i.PSUCTRL_Rte_Write_B_P_TURN_ON_MAIN) for PSUCTRL_Rte_Write_B_P_TURN_ON_MAIN
    psuctrl.o(i.PSUCTRL_vV1Out) refers to psuctrl.o(i.PSUCTRL_Rte_Write_B_P_V1_MONI_EN) for PSUCTRL_Rte_Write_B_P_V1_MONI_EN
    psuctrl.o(i.PSUCTRL_vV1Out) refers to psuctrl.o(i.PSUCTRL_Rte_Write_B_P_OUTPUT_OK) for PSUCTRL_Rte_Write_B_P_OUTPUT_OK
    psuctrl.o(i.PSUCTRL_vV1Out) refers to psuctrl.o(i.PSUCTRL_RTE_Read_B_R_VIN_OK) for PSUCTRL_RTE_Read_B_R_VIN_OK
    psuctrl.o(i.PSUCTRL_vV1Out) refers to psuctrl.o(i.PSUCTRL_RTE_Read_B_R_AUX_MODE) for PSUCTRL_RTE_Read_B_R_AUX_MODE
    psuctrl.o(i.PSUCTRL_vV1Out) refers to psuctrl.o(i.PSUCTRL_RTE_Read_B_R_REMOTE_ON) for PSUCTRL_RTE_Read_B_R_REMOTE_ON
    psuctrl.o(i.PSUCTRL_vV1Out) refers to psuctrl.o(i.PSUCTRL_Rte_Read_B_R_TEMP_ANY_OTP) for PSUCTRL_Rte_Read_B_R_TEMP_ANY_OTP
    psuctrl.o(i.PSUCTRL_vV1Out) refers to psuctrl.o(i.PSUCTRL_RTE_Read_B_R_STA_VSB_ON) for PSUCTRL_RTE_Read_B_R_STA_VSB_ON
    psuctrl.o(i.PSUCTRL_vV1Out) refers to blabox.o(i.BLABOX_vClearFault) for BLABOX_vClearFault
    psuctrl.o(i.PSUCTRL_vV1Out) refers to pmbus.o(i.PMBUS_vClearPowerOffFault) for PMBUS_vClearPowerOffFault
    psuctrl.o(i.PSUCTRL_vV1Out) refers to psuctrl.o(i.PSUCTRL_RTE_Read_B_R_V1_FAULT_ACTIVE) for PSUCTRL_RTE_Read_B_R_V1_FAULT_ACTIVE
    psuctrl.o(i.PSUCTRL_vV1Out) refers to psuctrl.o(i.PSUCTRL_RTE_Read_B_R_V1_OVP) for PSUCTRL_RTE_Read_B_R_V1_OVP
    psuctrl.o(i.PSUCTRL_vV1Out) refers to psuctrl.o(i.PSUCTRL_RTE_Read_B_R_V1_OCP) for PSUCTRL_RTE_Read_B_R_V1_OCP
    psuctrl.o(i.PSUCTRL_vV1Out) refers to psuctrl.o(i.PSUCTRL_RTE_Read_B_R_V1_UVP) for PSUCTRL_RTE_Read_B_R_V1_UVP
    psuctrl.o(i.PSUCTRL_vV1Out) refers to psuctrl.o(.data) for mg_V1State
    psuctrl.o(i.PSUCTRL_vV1Out) refers to rte.o(.bss) for RTE_Pri
    psuctrl.o(i.PSUCTRL_vV1Out) refers to rte.o(.data) for RTE_uComStatus02
    psuctrl.o(i.PSUCTRL_vVsbOut) refers to psuctrl.o(i.PSUCTRL_SCFG_vVsbSetOn) for PSUCTRL_SCFG_vVsbSetOn
    psuctrl.o(i.PSUCTRL_vVsbOut) refers to psuctrl.o(i.PSUCTRL_Rte_Write_B_P_STA_VSB_ON) for PSUCTRL_Rte_Write_B_P_STA_VSB_ON
    psuctrl.o(i.PSUCTRL_vVsbOut) refers to psuctrl.o(i.PSUCTRL_Rte_Write_B_P_VSB_MONI_EN) for PSUCTRL_Rte_Write_B_P_VSB_MONI_EN
    psuctrl.o(i.PSUCTRL_vVsbOut) refers to psuctrl.o(i.PSUCTRL_RTE_Read_B_R_AUX_MODE) for PSUCTRL_RTE_Read_B_R_AUX_MODE
    psuctrl.o(i.PSUCTRL_vVsbOut) refers to psuctrl.o(i.PSUCTRL_RTE_Read_B_R_VIN_OK) for PSUCTRL_RTE_Read_B_R_VIN_OK
    psuctrl.o(i.PSUCTRL_vVsbOut) refers to pmbus.o(i.PMBUS_vClearAllFault) for PMBUS_vClearAllFault
    psuctrl.o(i.PSUCTRL_vVsbOut) refers to psuctrl.o(i.PSUCTRL_RTE_Read_B_R_VSB_OCP) for PSUCTRL_RTE_Read_B_R_VSB_OCP
    psuctrl.o(i.PSUCTRL_vVsbOut) refers to psuctrl.o(i.PSUCTRL_RTE_Read_B_R_V1_FAULT_ACTIVE) for PSUCTRL_RTE_Read_B_R_V1_FAULT_ACTIVE
    psuctrl.o(i.PSUCTRL_vVsbOut) refers to psuctrl.o(.data) for mg_VsbState
    psuctrl.o(i.PSUCTRL_vVsbOut) refers to rte.o(.data) for RTE_uDioInStatus
    psuctrl.o(i.PSUCTRL_vVsbOut) refers to rte.o(.bss) for RTE_Pri
    tempctrl.o(i.TEMPCTRL_Rte_Read_R_u161mVLlcNtc) refers to rte.o(.bss) for RTE_Pri
    tempctrl.o(i.TEMPCTRL_Rte_Read_R_u161mVLlcNtc) refers to tempctrl.o(.data) for mg_u16Ret
    tempctrl.o(i.TEMPCTRL_Rte_Read_R_u161mVPfcNtc) refers to rte.o(.bss) for RTE_Pri
    tempctrl.o(i.TEMPCTRL_Rte_Read_R_u161mVPfcNtc) refers to tempctrl.o(.data) for mg_u16Ret
    tempctrl.o(i.TEMPCTRL_Rte_Read_R_u161mVSrNtc) refers to rte.o(.bss) for RTE_Sec
    tempctrl.o(i.TEMPCTRL_Rte_Read_R_u161mVSrNtc) refers to tempctrl.o(.data) for mg_u16Ret
    tempctrl.o(i.TEMPCTRL_SCFG_u16ReadInletNtc) refers to adc.o(i.ADC_vReadRaw) for ADC_vReadRaw
    tempctrl.o(i.TEMPCTRL_SCFG_u16ReadInletNtc) refers to tempctrl.o(.data) for mg_u16Ret
    tempctrl.o(i.TEMPCTRL_SCFG_u16ReadOutletNtc) refers to adc.o(i.ADC_vReadRaw) for ADC_vReadRaw
    tempctrl.o(i.TEMPCTRL_SCFG_u16ReadOutletNtc) refers to tempctrl.o(.data) for mg_u16Ret
    tempctrl.o(i.TEMPCTRL_s16ReadTempValue) refers to tempctrl.o(.bss) for mg_sTemp
    tempctrl.o(i.TEMPCTRL_u16ReadAdcAvgValue) refers to tempctrl.o(.bss) for mg_sTemp
    tempctrl.o(i.TEMPCTRL_vInit) refers to tempctrl.o(.bss) for mg_sNtc
    tempctrl.o(i.TEMPCTRL_vInit) refers to tempctrl.o(.constdata) for TEMPCTRL_CFG_CONF
    tempctrl.o(i.TEMPCTRL_vLookUpNtcTemperature) refers to rte.o(.data) for RTE_u8TempTestIndex
    tempctrl.o(i.TEMPCTRL_vLookUpNtcTemperature) refers to tempctrl.o(.data) for u8NtcIndex
    tempctrl.o(i.TEMPCTRL_vLookUpNtcTemperature) refers to tempctrl.o(.bss) for mg_sTemp
    tempctrl.o(i.TEMPCTRL_vLookUpNtcTemperature) refers to rte.o(.bss) for RTE_s16TempTest
    tempctrl.o(i.TEMPCTRL_vLookUpNtcTemperature) refers to tempctrl.o(.constdata) for TEMPCTRL_mg_au16NtcTable1
    tempctrl.o(i.TEMPCTRL_vNtcTempMonitor) refers to fanctrl.o(i.FANCTRL_u8ReadFanBitFail) for FANCTRL_u8ReadFanBitFail
    tempctrl.o(i.TEMPCTRL_vNtcTempMonitor) refers to tempctrl.o(.data) for u8NtcIndex
    tempctrl.o(i.TEMPCTRL_vNtcTempMonitor) refers to tempctrl.o(.constdata) for TEMPCTRL_CFG_CONF
    tempctrl.o(i.TEMPCTRL_vNtcTempMonitor) refers to tempctrl.o(.bss) for mg_sTemp
    tempctrl.o(i.TEMPCTRL_vNtcTempMonitor) refers to rte.o(.data) for RTE_uTempOtwStatus
    tempctrl.o(i.TEMPCTRL_vNtcVoltAverage) refers to tempctrl.o(.data) for u8NtcIndex
    tempctrl.o(i.TEMPCTRL_vNtcVoltAverage) refers to tempctrl.o(.constdata) for TEMPCTRL_CFG_CONF
    tempctrl.o(i.TEMPCTRL_vNtcVoltAverage) refers to tempctrl.o(.bss) for mg_sNtc
    tempctrl.o(i.TEMPCTRL_vSetOtWarnValue) refers to tempctrl.o(.bss) for mg_sTemp
    tempctrl.o(.constdata) refers to tempctrl.o(i.TEMPCTRL_SCFG_u16ReadInletNtc) for TEMPCTRL_SCFG_u16ReadInletNtc
    tempctrl.o(.constdata) refers to tempctrl.o(i.TEMPCTRL_SCFG_u16ReadOutletNtc) for TEMPCTRL_SCFG_u16ReadOutletNtc
    tempctrl.o(.constdata) refers to tempctrl.o(i.TEMPCTRL_Rte_Read_R_u161mVPfcNtc) for TEMPCTRL_Rte_Read_R_u161mVPfcNtc
    tempctrl.o(.constdata) refers to tempctrl.o(i.TEMPCTRL_Rte_Read_R_u161mVLlcNtc) for TEMPCTRL_Rte_Read_R_u161mVLlcNtc
    tempctrl.o(.constdata) refers to tempctrl.o(i.TEMPCTRL_Rte_Read_R_u161mVSrNtc) for TEMPCTRL_Rte_Read_R_u161mVSrNtc
    ledctrl.o(i.LEDCTRL_RTE_Read_B_R_Aux_Mode) refers to rte.o(.data) for PMBUS_uSysStatu0
    ledctrl.o(i.LEDCTRL_RTE_Read_B_R_V1_OCP) refers to rte.o(.data) for RTE_uComStatus02
    ledctrl.o(i.LEDCTRL_RTE_Read_B_R_V1_OVP) refers to rte.o(.data) for RTE_uComStatus02
    ledctrl.o(i.LEDCTRL_RTE_Read_B_R_V1_UVP) refers to rte.o(.data) for RTE_uComStatus02
    ledctrl.o(i.LEDCTRL_RTE_Read_B_R_VIN_OK) refers to rte.o(.data) for RTE_uComStatus00
    ledctrl.o(i.LEDCTRL_SCFG_vSetInREDOff) refers to port.o(i.PORT_vSetGpioPin) for PORT_vSetGpioPin
    ledctrl.o(i.LEDCTRL_SCFG_vSetInREDOn) refers to port.o(i.PORT_vSetGpioPin) for PORT_vSetGpioPin
    ledctrl.o(i.LEDCTRL_vLedControl) refers to ledctrl.o(i.LEDCTRL_SCFG_vSetInREDOff) for LEDCTRL_SCFG_vSetInREDOff
    ledctrl.o(i.LEDCTRL_vLedControl) refers to port.o(i.PORT_vSetGpioPinToggle) for PORT_vSetGpioPinToggle
    ledctrl.o(i.LEDCTRL_vLedControl) refers to ledctrl.o(i.LEDCTRL_RTE_Read_B_R_VIN_OK) for LEDCTRL_RTE_Read_B_R_VIN_OK
    ledctrl.o(i.LEDCTRL_vLedControl) refers to port.o(i.PORT_vSetGpioPin) for PORT_vSetGpioPin
    ledctrl.o(i.LEDCTRL_vLedControl) refers to ledctrl.o(i.LEDCTRL_SCFG_vSetInREDOn) for LEDCTRL_SCFG_vSetInREDOn
    ledctrl.o(i.LEDCTRL_vLedControl) refers to ledctrl.o(i.LEDCTRL_RTE_Read_B_R_V1_OVP) for LEDCTRL_RTE_Read_B_R_V1_OVP
    ledctrl.o(i.LEDCTRL_vLedControl) refers to ledctrl.o(i.LEDCTRL_RTE_Read_B_R_V1_OCP) for LEDCTRL_RTE_Read_B_R_V1_OCP
    ledctrl.o(i.LEDCTRL_vLedControl) refers to ledctrl.o(i.LEDCTRL_RTE_Read_B_R_V1_UVP) for LEDCTRL_RTE_Read_B_R_V1_UVP
    ledctrl.o(i.LEDCTRL_vLedControl) refers to ledctrl.o(i.LEDCTRL_RTE_Read_B_R_Aux_Mode) for LEDCTRL_RTE_Read_B_R_Aux_Mode
    ledctrl.o(i.LEDCTRL_vLedControl) refers to fanctrl.o(i.FANCTRL_u8ReadFanBitFail) for FANCTRL_u8ReadFanBitFail
    ledctrl.o(i.LEDCTRL_vLedControl) refers to rte.o(.data) for PMBUS_uSysStatu1
    ledctrl.o(i.LEDCTRL_vLedControl) refers to ledctrl.o(.data) for mg_u8mg_u8Toggleboot
    ledctrl.o(i.LEDCTRL_vLedControl) refers to rte.o(.bss) for RTE_Sec
    timectrl.o(i.TIMECATL_SCFG_u8GetCrc8) refers to crc.o(i.CRC_u8GetCrc8) for CRC_u8GetCrc8
    timectrl.o(i.TIMECATL_SCFG_vWriteMem) refers to eeprom.o(i.EEPROM_u32WriteBuffer) for EEPROM_u32WriteBuffer
    timectrl.o(i.TIMECTRL_RTE_Write_B_P_PSO_LAST_UPDTING) refers to rte.o(.data) for PMBUS_uDataUpdStatus1
    timectrl.o(i.TIMECTRL_RTE_Write_B_P_PSO_TOTAL_UPDTING) refers to rte.o(.data) for PMBUS_uDataUpdStatus1
    timectrl.o(i.TIMECTRL_RTE_Write_P_u32PosTotal) refers to rte.o(.bss) for PMBUS_tData
    timectrl.o(i.TIMECTRL_RTE_Write_P_vDataCopy) refers to rte.o(.bss) for PMBUS_tData
    timectrl.o(i.TIMECTRL_RTE_Write_P_vWrBitHoursUpd) refers to rte.o(.data) for PMBUS_uDataUpdStatus
    timectrl.o(i.TIMECTRL_RTE_Write_P_vWrHoursUsed) refers to rte.o(.bss) for PMBUS_tData
    timectrl.o(i.TIMECTRL_vInit) refers to eeprom.o(i.EEPROM_u32ReadBuffer) for EEPROM_u32ReadBuffer
    timectrl.o(i.TIMECTRL_vInit) refers to timectrl.o(i.TIMECATL_SCFG_u8GetCrc8) for TIMECATL_SCFG_u8GetCrc8
    timectrl.o(i.TIMECTRL_vInit) refers to uidiv.o(.text) for __aeabi_uidivmod
    timectrl.o(i.TIMECTRL_vInit) refers to timectrl.o(i.TIMECTRL_RTE_Write_P_vWrHoursUsed) for TIMECTRL_RTE_Write_P_vWrHoursUsed
    timectrl.o(i.TIMECTRL_vInit) refers to timectrl.o(i.TIMECTRL_RTE_Write_P_u32PosTotal) for TIMECTRL_RTE_Write_P_u32PosTotal
    timectrl.o(i.TIMECTRL_vInit) refers to timectrl.o(.data) for mg_u32MinutesUsed
    timectrl.o(i.TIMECTRL_vSaveHoursUsed) refers to timectrl.o(i.TIMECTRL_RTE_Write_P_vDataCopy) for TIMECTRL_RTE_Write_P_vDataCopy
    timectrl.o(i.TIMECTRL_vSaveHoursUsed) refers to timectrl.o(i.TIMECTRL_RTE_Write_B_P_PSO_TOTAL_UPDTING) for TIMECTRL_RTE_Write_B_P_PSO_TOTAL_UPDTING
    timectrl.o(i.TIMECTRL_vSaveHoursUsed) refers to timectrl.o(i.TIMECTRL_RTE_Write_P_u32PosTotal) for TIMECTRL_RTE_Write_P_u32PosTotal
    timectrl.o(i.TIMECTRL_vSaveHoursUsed) refers to timectrl.o(i.TIMECTRL_RTE_Write_B_P_PSO_LAST_UPDTING) for TIMECTRL_RTE_Write_B_P_PSO_LAST_UPDTING
    timectrl.o(i.TIMECTRL_vSaveHoursUsed) refers to uidiv.o(.text) for __aeabi_uidivmod
    timectrl.o(i.TIMECTRL_vSaveHoursUsed) refers to timectrl.o(i.TIMECTRL_RTE_Write_P_vWrBitHoursUpd) for TIMECTRL_RTE_Write_P_vWrBitHoursUpd
    timectrl.o(i.TIMECTRL_vSaveHoursUsed) refers to timectrl.o(i.TIMECTRL_RTE_Write_P_vWrHoursUsed) for TIMECTRL_RTE_Write_P_vWrHoursUsed
    timectrl.o(i.TIMECTRL_vSaveHoursUsed) refers to timectrl.o(i.TIMECATL_SCFG_u8GetCrc8) for TIMECATL_SCFG_u8GetCrc8
    timectrl.o(i.TIMECTRL_vSaveHoursUsed) refers to timectrl.o(i.TIMECATL_SCFG_vWriteMem) for TIMECATL_SCFG_vWriteMem
    timectrl.o(i.TIMECTRL_vSaveHoursUsed) refers to timectrl.o(.data) for mg_RtcTrSecondUnit
    timectrl.o(i.TIMECTRL_vSaveHoursUsed) refers to rte.o(.bss) for RTE_Sec
    timectrl.o(i.TIMECTRL_vSaveHoursUsed) refers to rte.o(.data) for RTE_uComStatus00
    intcom.o(i.INTCOM_RTE_Read_B_R_VIN_OK_ACTIVE) refers to rte.o(.data) for RTE_uDioInStatus
    intcom.o(i.INTCOM_RTE_Write_B_P_COMMS_FAULT) refers to rte.o(.bss) for PMBUS_tStatus
    intcom.o(i.INTCOM_RTE_Write_B_P_PRI_NO_RX_PKG) refers to rte.o(.data) for RTE_uIntcom1Status
    intcom.o(i.INTCOM_RTE_Write_B_P_PRI_RX_PKG) refers to rte.o(.data) for RTE_uIntcom1Status
    intcom.o(i.INTCOM_RTE_Write_B_P_PRI_UART_FAIL) refers to rte.o(.data) for RTE_uIntcom1Status
    intcom.o(i.INTCOM_RTE_Write_B_P_SEC_NO_RX_PKG) refers to rte.o(.data) for RTE_uIntcom2Status
    intcom.o(i.INTCOM_RTE_Write_B_P_SEC_UART_FAIL) refers to rte.o(.data) for RTE_uIntcom2Status
    intcom.o(i.INTCOM_Rte_Write_B_P_V1_OCP) refers to rte.o(.data) for RTE_uComStatus02
    intcom.o(i.INTCOM_Rte_Write_P_u16FanCnt) refers to rte.o(.bss) for RTE_Pri
    intcom.o(i.INTCOM_vCom1RxData) refers to uidiv.o(.text) for __aeabi_uidivmod
    intcom.o(i.INTCOM_vCom1RxData) refers to intcom.o(i.INTCOM_RTE_Write_B_P_PRI_UART_FAIL) for INTCOM_RTE_Write_B_P_PRI_UART_FAIL
    intcom.o(i.INTCOM_vCom1RxData) refers to intcom.o(i.INTCOM_RTE_Write_B_P_PRI_NO_RX_PKG) for INTCOM_RTE_Write_B_P_PRI_NO_RX_PKG
    intcom.o(i.INTCOM_vCom1RxData) refers to intcom.o(i.INTCOM_RTE_Write_B_P_PRI_RX_PKG) for INTCOM_RTE_Write_B_P_PRI_RX_PKG
    intcom.o(i.INTCOM_vCom1RxData) refers to intcom.o(i.INTCOM_Rte_Write_P_u16FanCnt) for INTCOM_Rte_Write_P_u16FanCnt
    intcom.o(i.INTCOM_vCom1RxData) refers to rte.o(.bss) for RTE_Pri
    intcom.o(i.INTCOM_vCom1RxData) refers to rte.o(.data) for RTE_u32PmbusFwRevPri1
    intcom.o(i.INTCOM_vCom1RxData) refers to intcom.o(.data) for mg_u32Com1MonCnt
    intcom.o(i.INTCOM_vCom1TxData) refers to rte.o(.data) for RTE_uComToPriStatus
    intcom.o(i.INTCOM_vCom1TxData) refers to rte.o(.bss) for RTE_Pri
    intcom.o(i.INTCOM_vCom2RxData) refers to intcom.o(i.INTCOM_Rte_Write_B_P_V1_OCP) for INTCOM_Rte_Write_B_P_V1_OCP
    intcom.o(i.INTCOM_vCom2RxData) refers to intcom.o(i.INTCOM_RTE_Write_B_P_SEC_UART_FAIL) for INTCOM_RTE_Write_B_P_SEC_UART_FAIL
    intcom.o(i.INTCOM_vCom2RxData) refers to intcom.o(i.INTCOM_RTE_Write_B_P_SEC_NO_RX_PKG) for INTCOM_RTE_Write_B_P_SEC_NO_RX_PKG
    intcom.o(i.INTCOM_vCom2RxData) refers to rte.o(.bss) for RTE_Sec
    intcom.o(i.INTCOM_vCom2RxData) refers to rte.o(.data) for RTE_u32PmbusFwRevSec1
    intcom.o(i.INTCOM_vCom2RxData) refers to intcom.o(.data) for mg_u32Com2MonCnt
    intcom.o(i.INTCOM_vCom2TxData) refers to rte.o(.data) for RTE_uComToSecStatus
    intcom.o(i.INTCOM_vCom2TxData) refers to rte.o(.bss) for RTE_Pri
    intcom.o(i.INTCOM_vInit) refers to intcom.o(.data) for mg_u32Com1MonCnt
    intcom.o(i.INTCOM_vTmOutMon) refers to intcom.o(i.INTCOM_RTE_Write_B_P_PRI_UART_FAIL) for INTCOM_RTE_Write_B_P_PRI_UART_FAIL
    intcom.o(i.INTCOM_vTmOutMon) refers to intcom.o(i.INTCOM_RTE_Write_B_P_PRI_NO_RX_PKG) for INTCOM_RTE_Write_B_P_PRI_NO_RX_PKG
    intcom.o(i.INTCOM_vTmOutMon) refers to intcom.o(i.INTCOM_RTE_Write_B_P_PRI_RX_PKG) for INTCOM_RTE_Write_B_P_PRI_RX_PKG
    intcom.o(i.INTCOM_vTmOutMon) refers to intcom.o(i.INTCOM_RTE_Read_B_R_VIN_OK_ACTIVE) for INTCOM_RTE_Read_B_R_VIN_OK_ACTIVE
    intcom.o(i.INTCOM_vTmOutMon) refers to intcom.o(i.INTCOM_RTE_Write_B_P_COMMS_FAULT) for INTCOM_RTE_Write_B_P_COMMS_FAULT
    intcom.o(i.INTCOM_vTmOutMon) refers to intcom.o(i.INTCOM_RTE_Write_B_P_SEC_UART_FAIL) for INTCOM_RTE_Write_B_P_SEC_UART_FAIL
    intcom.o(i.INTCOM_vTmOutMon) refers to intcom.o(i.INTCOM_RTE_Write_B_P_SEC_NO_RX_PKG) for INTCOM_RTE_Write_B_P_SEC_NO_RX_PKG
    intcom.o(i.INTCOM_vTmOutMon) refers to intcom.o(.data) for mg_u32Com1MonCnt
    blabox.o(i.BLABOX_Rte_Read_B_R_AC_POWER_FAULT) refers to rte.o(.data) for RTE_uComStatus01
    blabox.o(i.BLABOX_Rte_Read_B_R_AUX_MODE) refers to rte.o(.data) for PMBUS_uSysStatu0
    blabox.o(i.BLABOX_Rte_Read_B_R_FAN_WARN) refers to fanctrl.o(i.FANCTRL_u8ReadFanBitWarn) for FANCTRL_u8ReadFanBitWarn
    blabox.o(i.BLABOX_Rte_Read_B_R_IOUT_OC_FAULT) refers to rte.o(.bss) for PMBUS_tStatus
    blabox.o(i.BLABOX_Rte_Read_B_R_IOUT_OC_FAULT) refers to rte.o(.data) for RTE_uComStatus02
    blabox.o(i.BLABOX_Rte_Read_B_R_IOUT_WARN) refers to rte.o(.data) for RTE_uComStatus02
    blabox.o(i.BLABOX_Rte_Read_B_R_LOSS_INPUT) refers to rte.o(.data) for RTE_uComStatus01
    blabox.o(i.BLABOX_Rte_Read_B_R_OT_FAULT) refers to rte.o(.bss) for PMBUS_tStatus
    blabox.o(i.BLABOX_Rte_Read_B_R_OT_FAULT) refers to rte.o(.data) for RTE_uTempOtpStatus
    blabox.o(i.BLABOX_Rte_Read_B_R_PSON_FAULT) refers to rte.o(.data) for RTE_uDioInStatus
    blabox.o(i.BLABOX_Rte_Read_B_R_TEMP_WARN) refers to rte.o(.data) for RTE_uTempOtwStatus
    blabox.o(i.BLABOX_SCFG_Read) refers to s_dam.o(i.S_DAM_bRead) for S_DAM_bRead
    blabox.o(i.BLABOX_SCFG_Write) refers to s_dam.o(i.S_DAM_bWrite) for S_DAM_bWrite
    blabox.o(i.BLABOX_SCFG_u16Getlenght) refers to mem.o(i.MEM_u16Getlenght) for MEM_u16Getlenght
    blabox.o(i.BLABOX_SCFG_u32GetLastRecordId) refers to s_dam.o(i.S_DAM_u32GetLastRecordId) for S_DAM_u32GetLastRecordId
    blabox.o(i.BLABOX_vClearFault) refers to blabox.o(.data) for mg_OverVoutFaultWriteEnable
    blabox.o(i.BLABOX_vClearWarning) refers to blabox.o(i.BLABOX_Rte_Read_B_R_IOUT_WARN) for BLABOX_Rte_Read_B_R_IOUT_WARN
    blabox.o(i.BLABOX_vClearWarning) refers to blabox.o(i.BLABOX_Rte_Read_B_R_FAN_WARN) for BLABOX_Rte_Read_B_R_FAN_WARN
    blabox.o(i.BLABOX_vClearWarning) refers to blabox.o(i.BLABOX_Rte_Read_B_R_TEMP_WARN) for BLABOX_Rte_Read_B_R_TEMP_WARN
    blabox.o(i.BLABOX_vClearWarning) refers to blabox.o(.data) for u8IndexFlagOCmainWarning
    blabox.o(i.BLABOX_vCountRealTimeClockDataSystemBlackbox) refers to blabox.o(.data) for u8CntTime
    blabox.o(i.BLABOX_vGetEnableBlackbox) refers to blabox.o(i.BLABOX_SCFG_Read) for BLABOX_SCFG_Read
    blabox.o(i.BLABOX_vGetEnableBlackbox) refers to blabox.o(.data) for mg_bEnableBlackbox
    blabox.o(i.BLABOX_vGetRealTimeClockDataSystemBlackbox) refers to blabox.o(.data) for mg_u32RealTimeBaseIPMI
    blabox.o(i.BLABOX_vInit) refers to blabox.o(i.BLABOX_SCFG_u16Getlenght) for BLABOX_SCFG_u16Getlenght
    blabox.o(i.BLABOX_vInit) refers to mem.o(i.MEM_vRead2EEPORM) for MEM_vRead2EEPORM
    blabox.o(i.BLABOX_vInit) refers to blabox.o(i.BLABOX_SCFG_Read) for BLABOX_SCFG_Read
    blabox.o(i.BLABOX_vInit) refers to blabox.o(.data) for mg_OverVoutFaultWriteEnable
    blabox.o(i.BLABOX_vMFR_BLABOX) refers to blabox.o(i.BLABOX_SCFG_Read) for BLABOX_SCFG_Read
    blabox.o(i.BLABOX_vMFR_BLABOX) refers to s_dam.o(i.S_DAM_u32GetNumberOfRecords) for S_DAM_u32GetNumberOfRecords
    blabox.o(i.BLABOX_vMFR_BLABOX) refers to blabox.o(i.BLABOX_SCFG_u32GetLastRecordId) for BLABOX_SCFG_u32GetLastRecordId
    blabox.o(i.BLABOX_vMFR_BLABOX) refers to blabox.o(.bss) for mg_au8BuffWriteToEmem
    blabox.o(i.BLABOX_vMFR_CheckACBlackBox) refers to blabox.o(i.BLABOX_Rte_Read_B_R_AUX_MODE) for BLABOX_Rte_Read_B_R_AUX_MODE
    blabox.o(i.BLABOX_vMFR_CheckACBlackBox) refers to blabox.o(i.BLABOX_Rte_Read_B_R_AC_POWER_FAULT) for BLABOX_Rte_Read_B_R_AC_POWER_FAULT
    blabox.o(i.BLABOX_vMFR_CheckACBlackBox) refers to blabox.o(i.mg_vMfrSetACCntBlackBox) for mg_vMfrSetACCntBlackBox
    blabox.o(i.BLABOX_vMFR_CheckACBlackBox) refers to blabox.o(.data) for mg_bEnableBlackbox
    blabox.o(i.BLABOX_vMFR_CheckPSONBlackBox) refers to blabox.o(i.BLABOX_Rte_Read_B_R_AUX_MODE) for BLABOX_Rte_Read_B_R_AUX_MODE
    blabox.o(i.BLABOX_vMFR_CheckPSONBlackBox) refers to blabox.o(i.BLABOX_Rte_Read_B_R_PSON_FAULT) for BLABOX_Rte_Read_B_R_PSON_FAULT
    blabox.o(i.BLABOX_vMFR_CheckPSONBlackBox) refers to blabox.o(i.mg_vMfrSetPSONCntBlackBox) for mg_vMfrSetPSONCntBlackBox
    blabox.o(i.BLABOX_vMFR_CheckPSONBlackBox) refers to blabox.o(.data) for mg_bEnableBlackbox
    blabox.o(i.BLABOX_vMFR_ClearBlackBox) refers to blabox.o(i.mg_vReadMfrBlaboxHeader) for mg_vReadMfrBlaboxHeader
    blabox.o(i.BLABOX_vMFR_ClearBlackBox) refers to blabox.o(i.BLABOX_SCFG_Write) for BLABOX_SCFG_Write
    blabox.o(i.BLABOX_vMFR_ClearBlackBox) refers to blabox.o(i.BLABOX_SCFG_Read) for BLABOX_SCFG_Read
    blabox.o(i.BLABOX_vMFR_ClearBlackBox) refers to blabox.o(.bss) for mg_au8BuffWriteToEmem
    blabox.o(i.BLABOX_vMFR_SystemBlackBox) refers to blabox.o(i.mg_vReadMfrBlaboxHeader) for mg_vReadMfrBlaboxHeader
    blabox.o(i.BLABOX_vMFR_SystemBlackBox) refers to blabox.o(i.BLABOX_SCFG_Write) for BLABOX_SCFG_Write
    blabox.o(i.BLABOX_vMFR_SystemBlackBox) refers to blabox.o(.bss) for mg_au8BuffWriteToEmem
    blabox.o(i.BLABOX_vMFR_TimePSONBlackBox) refers to blabox.o(i.BLABOX_Rte_Read_B_R_AUX_MODE) for BLABOX_Rte_Read_B_R_AUX_MODE
    blabox.o(i.BLABOX_vMFR_TimePSONBlackBox) refers to blabox.o(i.BLABOX_Rte_Read_B_R_PSON_FAULT) for BLABOX_Rte_Read_B_R_PSON_FAULT
    blabox.o(i.BLABOX_vMFR_TimePSONBlackBox) refers to blabox.o(i.mg_vReadMfrBlaboxHeader) for mg_vReadMfrBlaboxHeader
    blabox.o(i.BLABOX_vMFR_TimePSONBlackBox) refers to blabox.o(i.BLABOX_SCFG_Write) for BLABOX_SCFG_Write
    blabox.o(i.BLABOX_vMFR_TimePSONBlackBox) refers to blabox.o(.data) for mg_bEnableBlackbox
    blabox.o(i.BLABOX_vMFR_TimePSONBlackBox) refers to blabox.o(.bss) for mg_au8BuffWriteToEmem
    blabox.o(i.BLABOX_vProcessBlackbox) refers to blabox.o(i.BLABOX_Rte_Read_B_R_AUX_MODE) for BLABOX_Rte_Read_B_R_AUX_MODE
    blabox.o(i.BLABOX_vProcessBlackbox) refers to blabox.o(i.BLABOX_SCFG_u32GetLastRecordId) for BLABOX_SCFG_u32GetLastRecordId
    blabox.o(i.BLABOX_vProcessBlackbox) refers to blabox.o(i.BLABOX_SCFG_Read) for BLABOX_SCFG_Read
    blabox.o(i.BLABOX_vProcessBlackbox) refers to blabox.o(i.mg_u8IsMaxCountEventFaultAndWarning) for mg_u8IsMaxCountEventFaultAndWarning
    blabox.o(i.BLABOX_vProcessBlackbox) refers to blabox.o(i.mg_vPushEventFaultBlackBox) for mg_vPushEventFaultBlackBox
    blabox.o(i.BLABOX_vProcessBlackbox) refers to blabox.o(i.mg_vSetCountEventFaultAndWarning) for mg_vSetCountEventFaultAndWarning
    blabox.o(i.BLABOX_vProcessBlackbox) refers to blabox.o(i.BLABOX_SCFG_Write) for BLABOX_SCFG_Write
    blabox.o(i.BLABOX_vProcessBlackbox) refers to blabox.o(i.BLABOX_Rte_Read_B_R_IOUT_OC_FAULT) for BLABOX_Rte_Read_B_R_IOUT_OC_FAULT
    blabox.o(i.BLABOX_vProcessBlackbox) refers to fanctrl.o(i.FANCTRL_u8ReadFanBitFail) for FANCTRL_u8ReadFanBitFail
    blabox.o(i.BLABOX_vProcessBlackbox) refers to blabox.o(i.BLABOX_Rte_Read_B_R_OT_FAULT) for BLABOX_Rte_Read_B_R_OT_FAULT
    blabox.o(i.BLABOX_vProcessBlackbox) refers to blabox.o(i.BLABOX_Rte_Read_B_R_LOSS_INPUT) for BLABOX_Rte_Read_B_R_LOSS_INPUT
    blabox.o(i.BLABOX_vProcessBlackbox) refers to blabox.o(.data) for u16CntStartEnable
    blabox.o(i.BLABOX_vProcessBlackbox) refers to rte.o(.bss) for PMBUS_tStatus
    blabox.o(i.BLABOX_vProcessBlackbox) refers to rte.o(.data) for RTE_uComStatus02
    blabox.o(i.BLABOX_vProcessBlackbox) refers to blabox.o(.bss) for mg_au8BuffWriteToEmem
    blabox.o(i.BLABOX_vProcessBlackbox) refers to blabox.o(i.BLABOX_SCFG_u16Getlenght) for BLABOX_SCFG_u16Getlenght
    blabox.o(i.BLABOX_vProcessBlackbox) refers to mem.o(i.MEM_vWrite2EEPORM) for MEM_vWrite2EEPORM
    blabox.o(i.BLABOX_vSetEnableBlackbox) refers to blabox.o(i.BLABOX_SCFG_Write) for BLABOX_SCFG_Write
    blabox.o(i.BLABOX_vSetEnableBlackbox) refers to blabox.o(.data) for mg_bEnableBlackbox
    blabox.o(i.BLABOX_vSetRealTimeClockDataSystemBlackbox) refers to blabox.o(.data) for mg_u32RealTimeBaseIPMI
    blabox.o(i.mg_u8IsMaxCountEventFaultAndWarning) refers to blabox.o(.bss) for mg_au8BuffWriteToEmem
    blabox.o(i.mg_vMfrGetACCntBlackBox) refers to blabox.o(i.mg_vReadMfrBlaboxHeader) for mg_vReadMfrBlaboxHeader
    blabox.o(i.mg_vMfrGetPSONCntBlackBox) refers to blabox.o(i.mg_vReadMfrBlaboxHeader) for mg_vReadMfrBlaboxHeader
    blabox.o(i.mg_vMfrGetTimePSONBlackBox) refers to blabox.o(i.mg_vReadMfrBlaboxHeader) for mg_vReadMfrBlaboxHeader
    blabox.o(i.mg_vMfrSetACCntBlackBox) refers to blabox.o(i.mg_vReadMfrBlaboxHeader) for mg_vReadMfrBlaboxHeader
    blabox.o(i.mg_vMfrSetACCntBlackBox) refers to blabox.o(i.BLABOX_Rte_Read_B_R_PSON_FAULT) for BLABOX_Rte_Read_B_R_PSON_FAULT
    blabox.o(i.mg_vMfrSetACCntBlackBox) refers to blabox.o(i.BLABOX_SCFG_Write) for BLABOX_SCFG_Write
    blabox.o(i.mg_vMfrSetACCntBlackBox) refers to blabox.o(.bss) for mg_au8BuffWriteToEmem
    blabox.o(i.mg_vMfrSetPSONCntBlackBox) refers to blabox.o(i.mg_vReadMfrBlaboxHeader) for mg_vReadMfrBlaboxHeader
    blabox.o(i.mg_vMfrSetPSONCntBlackBox) refers to blabox.o(i.BLABOX_Rte_Read_B_R_LOSS_INPUT) for BLABOX_Rte_Read_B_R_LOSS_INPUT
    blabox.o(i.mg_vMfrSetPSONCntBlackBox) refers to blabox.o(i.BLABOX_SCFG_Write) for BLABOX_SCFG_Write
    blabox.o(i.mg_vMfrSetPSONCntBlackBox) refers to blabox.o(.bss) for mg_au8BuffWriteToEmem
    blabox.o(i.mg_vPushEventFaultBlackBox) refers to blabox.o(i.mg_vMfrGetTimePSONBlackBox) for mg_vMfrGetTimePSONBlackBox
    blabox.o(i.mg_vPushEventFaultBlackBox) refers to blabox.o(i.mg_vMfrGetACCntBlackBox) for mg_vMfrGetACCntBlackBox
    blabox.o(i.mg_vPushEventFaultBlackBox) refers to blabox.o(i.mg_vMfrGetPSONCntBlackBox) for mg_vMfrGetPSONCntBlackBox
    blabox.o(i.mg_vPushEventFaultBlackBox) refers to pmbus.o(i.PMBUS_vSaveBlackBoxData2Buff) for PMBUS_vSaveBlackBoxData2Buff
    blabox.o(i.mg_vPushEventFaultBlackBox) refers to blabox.o(.bss) for mg_au8BuffWriteToEmem
    blabox.o(i.mg_vPushEventFaultBlackBox) refers to blabox.o(.data) for mg_u32RealTimeBaseIPMI
    blabox.o(i.mg_vPushEventFaultBlackBox) refers to rte.o(.bss) for PMBUS_tStatus
    blabox.o(i.mg_vReadMfrBlaboxHeader) refers to blabox.o(i.BLABOX_SCFG_Read) for BLABOX_SCFG_Read
    blabox.o(i.mg_vSetCountEventFaultAndWarning) refers to blabox.o(.bss) for mg_au8BuffWriteToEmem
    blabox.o(.constdata) refers to blabox.o(i.FANCTRL_SCFG_u8RdFan1Status) for FANCTRL_SCFG_u8RdFan1Status
    blabox.o(.constdata) refers to blabox.o(i.FANCTRL_SCFG_vSetFan1Duty) for FANCTRL_SCFG_vSetFan1Duty
    blabox.o(.constdata) refers to blabox.o(i.FANCTRL_SCFG_u8RdFan2Status) for FANCTRL_SCFG_u8RdFan2Status
    blabox.o(.constdata) refers to blabox.o(i.FANCTRL_SCFG_vSetFan2Duty) for FANCTRL_SCFG_vSetFan2Duty
    entry.o(.ARM.Collect$$$$00000000) refers (Special) to entry10a.o(.ARM.Collect$$$$0000000D) for __rt_final_cpp
    entry.o(.ARM.Collect$$$$00000000) refers (Special) to entry11a.o(.ARM.Collect$$$$0000000F) for __rt_final_exit
    entry.o(.ARM.Collect$$$$00000000) refers (Special) to entry7b.o(.ARM.Collect$$$$00000008) for _main_clock
    entry.o(.ARM.Collect$$$$00000000) refers (Special) to entry8b.o(.ARM.Collect$$$$0000000A) for _main_cpp_init
    entry.o(.ARM.Collect$$$$00000000) refers (Special) to entry9a.o(.ARM.Collect$$$$0000000B) for _main_init
    entry.o(.ARM.Collect$$$$00000000) refers (Special) to entry5.o(.ARM.Collect$$$$00000004) for _main_scatterload
    entry.o(.ARM.Collect$$$$00000000) refers (Special) to entry2.o(.ARM.Collect$$$$00000001) for _main_stk
    idiv.o(.text) refers to uidiv.o(.text) for __aeabi_uidivmod
    fmul.o(.text) refers (Special) to iusefp.o(.text) for __I$use$fp
    ffltui.o(.text) refers (Special) to iusefp.o(.text) for __I$use$fp
    ffltui.o(.text) refers to fepilogue.o(.text) for _float_epilogue
    ffixui.o(.text) refers (Special) to iusefp.o(.text) for __I$use$fp
    entry2.o(.ARM.Collect$$$$00000001) refers to entry2.o(.ARM.Collect$$$$00002712) for __lit__00000000
    entry2.o(.ARM.Collect$$$$00002712) refers to startup_stm32f0xx.o(STACK) for __initial_sp
    entry2.o(__vectab_stack_and_reset_area) refers to startup_stm32f0xx.o(STACK) for __initial_sp
    entry2.o(__vectab_stack_and_reset_area) refers to entry.o(.ARM.Collect$$$$00000000) for __main
    entry5.o(.ARM.Collect$$$$00000004) refers to init.o(.text) for __scatterload
    entry9a.o(.ARM.Collect$$$$0000000B) refers to main.o(i.main) for main
    entry9b.o(.ARM.Collect$$$$0000000C) refers to main.o(i.main) for main
    init.o(.text) refers to entry5.o(.ARM.Collect$$$$00000004) for __main_after_scatterload


==============================================================================

Removing Unused input sections from the image.

    Removing stdperiphdriver.o(.rev16_text), (4 bytes).
    Removing stdperiphdriver.o(.revsh_text), (4 bytes).
    Removing stdperiphdriver.o(i.ADC_AnalogWatchdogCmd), (28 bytes).
    Removing stdperiphdriver.o(i.ADC_AnalogWatchdogSingleChannelCmd), (28 bytes).
    Removing stdperiphdriver.o(i.ADC_AnalogWatchdogSingleChannelConfig), (28 bytes).
    Removing stdperiphdriver.o(i.ADC_AnalogWatchdogThresholdsConfig), (8 bytes).
    Removing stdperiphdriver.o(i.ADC_AutoPowerOffCmd), (28 bytes).
    Removing stdperiphdriver.o(i.ADC_ClearFlag), (4 bytes).
    Removing stdperiphdriver.o(i.ADC_ClearITPendingBit), (4 bytes).
    Removing stdperiphdriver.o(i.ADC_ClockModeConfig), (4 bytes).
    Removing stdperiphdriver.o(i.ADC_ContinuousModeCmd), (28 bytes).
    Removing stdperiphdriver.o(i.ADC_DiscModeCmd), (28 bytes).
    Removing stdperiphdriver.o(i.ADC_GetConversionValue), (8 bytes).
    Removing stdperiphdriver.o(i.ADC_GetITStatus), (34 bytes).
    Removing stdperiphdriver.o(i.ADC_ITConfig), (20 bytes).
    Removing stdperiphdriver.o(i.ADC_JitterCmd), (20 bytes).
    Removing stdperiphdriver.o(i.ADC_OverrunModeCmd), (28 bytes).
    Removing stdperiphdriver.o(i.ADC_StopOfConversion), (10 bytes).
    Removing stdperiphdriver.o(i.ADC_TempSensorCmd), (40 bytes).
    Removing stdperiphdriver.o(i.ADC_VbatCmd), (40 bytes).
    Removing stdperiphdriver.o(i.ADC_VrefintCmd), (40 bytes).
    Removing stdperiphdriver.o(i.ADC_WaitModeCmd), (28 bytes).
    Removing stdperiphdriver.o(i.CAN_CancelTransmit), (54 bytes).
    Removing stdperiphdriver.o(i.CAN_ClearFlag), (68 bytes).
    Removing stdperiphdriver.o(i.CAN_ClearITPendingBit), (188 bytes).
    Removing stdperiphdriver.o(i.CAN_DBGFreeze), (28 bytes).
    Removing stdperiphdriver.o(i.CAN_DeInit), (24 bytes).
    Removing stdperiphdriver.o(i.CAN_FIFORelease), (24 bytes).
    Removing stdperiphdriver.o(i.CAN_FilterInit), (252 bytes).
    Removing stdperiphdriver.o(i.CAN_GetFlagStatus), (146 bytes).
    Removing stdperiphdriver.o(i.CAN_GetITStatus), (312 bytes).
    Removing stdperiphdriver.o(i.CAN_GetLSBTransmitErrorCounter), (16 bytes).
    Removing stdperiphdriver.o(i.CAN_GetLastErrorCode), (14 bytes).
    Removing stdperiphdriver.o(i.CAN_GetReceiveErrorCounter), (10 bytes).
    Removing stdperiphdriver.o(i.CAN_ITConfig), (20 bytes).
    Removing stdperiphdriver.o(i.CAN_Init), (284 bytes).
    Removing stdperiphdriver.o(i.CAN_MessagePending), (32 bytes).
    Removing stdperiphdriver.o(i.CAN_OperatingModeRequest), (172 bytes).
    Removing stdperiphdriver.o(i.CAN_Receive), (262 bytes).
    Removing stdperiphdriver.o(i.CAN_SlaveStartBank), (56 bytes).
    Removing stdperiphdriver.o(i.CAN_Sleep), (30 bytes).
    Removing stdperiphdriver.o(i.CAN_StructInit), (32 bytes).
    Removing stdperiphdriver.o(i.CAN_TTComModeCmd), (128 bytes).
    Removing stdperiphdriver.o(i.CAN_Transmit), (308 bytes).
    Removing stdperiphdriver.o(i.CAN_TransmitStatus), (176 bytes).
    Removing stdperiphdriver.o(i.CAN_WakeUp), (52 bytes).
    Removing stdperiphdriver.o(i.CEC_ClearFlag), (12 bytes).
    Removing stdperiphdriver.o(i.CEC_ClearITPendingBit), (12 bytes).
    Removing stdperiphdriver.o(i.CEC_Cmd), (36 bytes).
    Removing stdperiphdriver.o(i.CEC_DeInit), (22 bytes).
    Removing stdperiphdriver.o(i.CEC_EndOfMessage), (20 bytes).
    Removing stdperiphdriver.o(i.CEC_GetFlagStatus), (28 bytes).
    Removing stdperiphdriver.o(i.CEC_GetITStatus), (40 bytes).
    Removing stdperiphdriver.o(i.CEC_ITConfig), (36 bytes).
    Removing stdperiphdriver.o(i.CEC_Init), (52 bytes).
    Removing stdperiphdriver.o(i.CEC_ListenModeCmd), (40 bytes).
    Removing stdperiphdriver.o(i.CEC_OwnAddressClear), (12 bytes).
    Removing stdperiphdriver.o(i.CEC_OwnAddressConfig), (28 bytes).
    Removing stdperiphdriver.o(i.CEC_ReceiveData), (12 bytes).
    Removing stdperiphdriver.o(i.CEC_SendData), (12 bytes).
    Removing stdperiphdriver.o(i.CEC_StartOfMessage), (20 bytes).
    Removing stdperiphdriver.o(i.CEC_StructInit), (18 bytes).
    Removing stdperiphdriver.o(i.COMP_Cmd), (40 bytes).
    Removing stdperiphdriver.o(i.COMP_DeInit), (12 bytes).
    Removing stdperiphdriver.o(i.COMP_GetOutputLevel), (36 bytes).
    Removing stdperiphdriver.o(i.COMP_Init), (56 bytes).
    Removing stdperiphdriver.o(i.COMP_LockConfig), (24 bytes).
    Removing stdperiphdriver.o(i.COMP_StructInit), (16 bytes).
    Removing stdperiphdriver.o(i.COMP_SwitchCmd), (36 bytes).
    Removing stdperiphdriver.o(i.COMP_WindowCmd), (40 bytes).
    Removing stdperiphdriver.o(i.CRC_CalcBlockCRC), (36 bytes).
    Removing stdperiphdriver.o(i.CRC_CalcCRC), (16 bytes).
    Removing stdperiphdriver.o(i.CRC_CalcCRC16bits), (16 bytes).
    Removing stdperiphdriver.o(i.CRC_CalcCRC8bits), (16 bytes).
    Removing stdperiphdriver.o(i.CRC_DeInit), (36 bytes).
    Removing stdperiphdriver.o(i.CRC_GetCRC), (12 bytes).
    Removing stdperiphdriver.o(i.CRC_GetIDRegister), (12 bytes).
    Removing stdperiphdriver.o(i.CRC_PolynomialSizeSelect), (32 bytes).
    Removing stdperiphdriver.o(i.CRC_ResetDR), (20 bytes).
    Removing stdperiphdriver.o(i.CRC_ReverseInputDataSelect), (32 bytes).
    Removing stdperiphdriver.o(i.CRC_ReverseOutputDataCmd), (36 bytes).
    Removing stdperiphdriver.o(i.CRC_SetIDRegister), (12 bytes).
    Removing stdperiphdriver.o(i.CRC_SetInitRegister), (12 bytes).
    Removing stdperiphdriver.o(i.CRC_SetPolynomial), (12 bytes).
    Removing stdperiphdriver.o(i.CRS_AdjustHSI48CalibrationValue), (32 bytes).
    Removing stdperiphdriver.o(i.CRS_AutomaticCalibrationCmd), (36 bytes).
    Removing stdperiphdriver.o(i.CRS_ClearFlag), (40 bytes).
    Removing stdperiphdriver.o(i.CRS_ClearITPendingBit), (40 bytes).
    Removing stdperiphdriver.o(i.CRS_DeInit), (22 bytes).
    Removing stdperiphdriver.o(i.CRS_FrequencyErrorCounterCmd), (36 bytes).
    Removing stdperiphdriver.o(i.CRS_FrequencyErrorCounterReload), (28 bytes).
    Removing stdperiphdriver.o(i.CRS_FrequencyErrorLimitConfig), (28 bytes).
    Removing stdperiphdriver.o(i.CRS_GetFlagStatus), (16 bytes).
    Removing stdperiphdriver.o(i.CRS_GetFrequencyErrorDirection), (16 bytes).
    Removing stdperiphdriver.o(i.CRS_GetFrequencyErrorValue), (16 bytes).
    Removing stdperiphdriver.o(i.CRS_GetHSI48CalibrationValue), (20 bytes).
    Removing stdperiphdriver.o(i.CRS_GetITStatus), (16 bytes).
    Removing stdperiphdriver.o(i.CRS_GetReloadValue), (12 bytes).
    Removing stdperiphdriver.o(i.CRS_ITConfig), (32 bytes).
    Removing stdperiphdriver.o(i.CRS_SoftwareSynchronizationGenerate), (20 bytes).
    Removing stdperiphdriver.o(i.CRS_SynchronizationPolarityConfig), (28 bytes).
    Removing stdperiphdriver.o(i.CRS_SynchronizationPrescalerConfig), (28 bytes).
    Removing stdperiphdriver.o(i.CRS_SynchronizationSourceConfig), (28 bytes).
    Removing stdperiphdriver.o(i.CheckITStatus), (20 bytes).
    Removing stdperiphdriver.o(i.DAC_ClearFlag), (16 bytes).
    Removing stdperiphdriver.o(i.DAC_ClearITPendingBit), (16 bytes).
    Removing stdperiphdriver.o(i.DAC_Cmd), (40 bytes).
    Removing stdperiphdriver.o(i.DAC_DMACmd), (44 bytes).
    Removing stdperiphdriver.o(i.DAC_DeInit), (22 bytes).
    Removing stdperiphdriver.o(i.DAC_DualSoftwareTriggerCmd), (36 bytes).
    Removing stdperiphdriver.o(i.DAC_GetDataOutputValue), (36 bytes).
    Removing stdperiphdriver.o(i.DAC_GetFlagStatus), (32 bytes).
    Removing stdperiphdriver.o(i.DAC_GetITStatus), (52 bytes).
    Removing stdperiphdriver.o(i.DAC_ITConfig), (44 bytes).
    Removing stdperiphdriver.o(i.DAC_Init), (56 bytes).
    Removing stdperiphdriver.o(i.DAC_SetChannel1Data), (32 bytes).
    Removing stdperiphdriver.o(i.DAC_SetChannel2Data), (32 bytes).
    Removing stdperiphdriver.o(i.DAC_SetDualChannelData), (40 bytes).
    Removing stdperiphdriver.o(i.DAC_SoftwareTriggerCmd), (48 bytes).
    Removing stdperiphdriver.o(i.DAC_StructInit), (12 bytes).
    Removing stdperiphdriver.o(i.DAC_WaveGenerationCmd), (44 bytes).
    Removing stdperiphdriver.o(i.DBGMCU_APB1PeriphConfig), (32 bytes).
    Removing stdperiphdriver.o(i.DBGMCU_APB2PeriphConfig), (32 bytes).
    Removing stdperiphdriver.o(i.DBGMCU_Config), (32 bytes).
    Removing stdperiphdriver.o(i.DBGMCU_GetDEVID), (16 bytes).
    Removing stdperiphdriver.o(i.DBGMCU_GetREVID), (12 bytes).
    Removing stdperiphdriver.o(i.DMA_ClearFlag), (32 bytes).
    Removing stdperiphdriver.o(i.DMA_ClearITPendingBit), (32 bytes).
    Removing stdperiphdriver.o(i.DMA_GetCurrDataCounter), (8 bytes).
    Removing stdperiphdriver.o(i.DMA_GetFlagStatus), (52 bytes).
    Removing stdperiphdriver.o(i.DMA_GetITStatus), (52 bytes).
    Removing stdperiphdriver.o(i.DMA_ITConfig), (20 bytes).
    Removing stdperiphdriver.o(i.DMA_RemapConfig), (52 bytes).
    Removing stdperiphdriver.o(i.DMA_SetCurrDataCounter), (4 bytes).
    Removing stdperiphdriver.o(i.DMA_StructInit), (26 bytes).
    Removing stdperiphdriver.o(i.EXTI_ClearFlag), (12 bytes).
    Removing stdperiphdriver.o(i.EXTI_ClearITPendingBit), (12 bytes).
    Removing stdperiphdriver.o(i.EXTI_DeInit), (32 bytes).
    Removing stdperiphdriver.o(i.EXTI_GenerateSWInterrupt), (16 bytes).
    Removing stdperiphdriver.o(i.EXTI_GetFlagStatus), (28 bytes).
    Removing stdperiphdriver.o(i.EXTI_GetITStatus), (28 bytes).
    Removing stdperiphdriver.o(i.EXTI_Init), (136 bytes).
    Removing stdperiphdriver.o(i.EXTI_StructInit), (16 bytes).
    Removing stdperiphdriver.o(i.FLASH_ClearFlag), (12 bytes).
    Removing stdperiphdriver.o(i.FLASH_EraseAllPages), (72 bytes).
    Removing stdperiphdriver.o(i.FLASH_GetFlagStatus), (28 bytes).
    Removing stdperiphdriver.o(i.FLASH_GetPrefetchBufferStatus), (28 bytes).
    Removing stdperiphdriver.o(i.FLASH_ITConfig), (32 bytes).
    Removing stdperiphdriver.o(i.FLASH_OB_BOOT0Config), (80 bytes).
    Removing stdperiphdriver.o(i.FLASH_OB_BOOT0SWConfig), (80 bytes).
    Removing stdperiphdriver.o(i.FLASH_OB_BOOTConfig), (80 bytes).
    Removing stdperiphdriver.o(i.FLASH_OB_EnableWRP), (184 bytes).
    Removing stdperiphdriver.o(i.FLASH_OB_Erase), (152 bytes).
    Removing stdperiphdriver.o(i.FLASH_OB_GetRDP), (28 bytes).
    Removing stdperiphdriver.o(i.FLASH_OB_GetUser), (16 bytes).
    Removing stdperiphdriver.o(i.FLASH_OB_GetWRP), (12 bytes).
    Removing stdperiphdriver.o(i.FLASH_OB_Launch), (20 bytes).
    Removing stdperiphdriver.o(i.FLASH_OB_Lock), (20 bytes).
    Removing stdperiphdriver.o(i.FLASH_OB_ProgramData), (72 bytes).
    Removing stdperiphdriver.o(i.FLASH_OB_RDPConfig), (144 bytes).
    Removing stdperiphdriver.o(i.FLASH_OB_SRAMParityConfig), (80 bytes).
    Removing stdperiphdriver.o(i.FLASH_OB_Unlock), (40 bytes).
    Removing stdperiphdriver.o(i.FLASH_OB_UserConfig), (88 bytes).
    Removing stdperiphdriver.o(i.FLASH_OB_VDDAConfig), (80 bytes).
    Removing stdperiphdriver.o(i.FLASH_OB_WriteUser), (76 bytes).
    Removing stdperiphdriver.o(i.FLASH_PrefetchBufferCmd), (36 bytes).
    Removing stdperiphdriver.o(i.FLASH_SetLatency), (28 bytes).
    Removing stdperiphdriver.o(i.GPIO_DeInit), (176 bytes).
    Removing stdperiphdriver.o(i.GPIO_PinLockConfig), (34 bytes).
    Removing stdperiphdriver.o(i.GPIO_ReadInputData), (6 bytes).
    Removing stdperiphdriver.o(i.GPIO_ReadOutputData), (6 bytes).
    Removing stdperiphdriver.o(i.GPIO_ReadOutputDataBit), (20 bytes).
    Removing stdperiphdriver.o(i.GPIO_ResetBits), (4 bytes).
    Removing stdperiphdriver.o(i.GPIO_SetBits), (4 bytes).
    Removing stdperiphdriver.o(i.GPIO_StructInit), (24 bytes).
    Removing stdperiphdriver.o(i.GPIO_Write), (4 bytes).
    Removing stdperiphdriver.o(i.GPIO_WriteBit), (12 bytes).
    Removing stdperiphdriver.o(i.I2C_10BitAddressHeaderCmd), (28 bytes).
    Removing stdperiphdriver.o(i.I2C_10BitAddressingModeCmd), (28 bytes).
    Removing stdperiphdriver.o(i.I2C_AcknowledgeConfig), (28 bytes).
    Removing stdperiphdriver.o(i.I2C_AutoEndCmd), (28 bytes).
    Removing stdperiphdriver.o(i.I2C_CalculatePEC), (28 bytes).
    Removing stdperiphdriver.o(i.I2C_ClockTimeoutCmd), (28 bytes).
    Removing stdperiphdriver.o(i.I2C_DMACmd), (20 bytes).
    Removing stdperiphdriver.o(i.I2C_DeInit), (56 bytes).
    Removing stdperiphdriver.o(i.I2C_DualAddressCmd), (28 bytes).
    Removing stdperiphdriver.o(i.I2C_ExtendedClockTimeoutCmd), (26 bytes).
    Removing stdperiphdriver.o(i.I2C_GeneralCallCmd), (28 bytes).
    Removing stdperiphdriver.o(i.I2C_GenerateSTOP), (28 bytes).
    Removing stdperiphdriver.o(i.I2C_GetAddressMatched), (14 bytes).
    Removing stdperiphdriver.o(i.I2C_GetITStatus), (78 bytes).
    Removing stdperiphdriver.o(i.I2C_GetPEC), (8 bytes).
    Removing stdperiphdriver.o(i.I2C_IdleClockTimeoutCmd), (28 bytes).
    Removing stdperiphdriver.o(i.I2C_MasterRequestConfig), (28 bytes).
    Removing stdperiphdriver.o(i.I2C_NumberOfBytesConfig), (28 bytes).
    Removing stdperiphdriver.o(i.I2C_OwnAddress2Config), (36 bytes).
    Removing stdperiphdriver.o(i.I2C_PECRequestCmd), (28 bytes).
    Removing stdperiphdriver.o(i.I2C_ReadRegister), (22 bytes).
    Removing stdperiphdriver.o(i.I2C_ReloadCmd), (28 bytes).
    Removing stdperiphdriver.o(i.I2C_SMBusAlertCmd), (28 bytes).
    Removing stdperiphdriver.o(i.I2C_SlaveAddressConfig), (20 bytes).
    Removing stdperiphdriver.o(i.I2C_SlaveByteControlCmd), (28 bytes).
    Removing stdperiphdriver.o(i.I2C_StopModeCmd), (28 bytes).
    Removing stdperiphdriver.o(i.I2C_StructInit), (24 bytes).
    Removing stdperiphdriver.o(i.I2C_TimeoutAConfig), (20 bytes).
    Removing stdperiphdriver.o(i.I2C_TimeoutBConfig), (32 bytes).
    Removing stdperiphdriver.o(i.I2S_Cmd), (32 bytes).
    Removing stdperiphdriver.o(i.I2S_Init), (232 bytes).
    Removing stdperiphdriver.o(i.I2S_StructInit), (20 bytes).
    Removing stdperiphdriver.o(i.IWDG_Enable), (16 bytes).
    Removing stdperiphdriver.o(i.IWDG_GetFlagStatus), (28 bytes).
    Removing stdperiphdriver.o(i.IWDG_ReloadCounter), (16 bytes).
    Removing stdperiphdriver.o(i.IWDG_SetPrescaler), (12 bytes).
    Removing stdperiphdriver.o(i.IWDG_SetReload), (12 bytes).
    Removing stdperiphdriver.o(i.IWDG_SetWindowValue), (12 bytes).
    Removing stdperiphdriver.o(i.IWDG_WriteAccessCmd), (12 bytes).
    Removing stdperiphdriver.o(i.NVIC_SystemLPConfig), (32 bytes).
    Removing stdperiphdriver.o(i.PWR_ClearFlag), (20 bytes).
    Removing stdperiphdriver.o(i.PWR_DeInit), (22 bytes).
    Removing stdperiphdriver.o(i.PWR_EnterSTANDBYMode), (36 bytes).
    Removing stdperiphdriver.o(i.PWR_EnterSTOPMode), (100 bytes).
    Removing stdperiphdriver.o(i.PWR_EnterSleepMode), (32 bytes).
    Removing stdperiphdriver.o(i.PWR_GetFlagStatus), (28 bytes).
    Removing stdperiphdriver.o(i.PWR_PVDCmd), (36 bytes).
    Removing stdperiphdriver.o(i.PWR_PVDLevelConfig), (32 bytes).
    Removing stdperiphdriver.o(i.PWR_WakeUpPinCmd), (32 bytes).
    Removing stdperiphdriver.o(i.RCC_ADCCLKConfig), (56 bytes).
    Removing stdperiphdriver.o(i.RCC_AHBPeriphResetCmd), (32 bytes).
    Removing stdperiphdriver.o(i.RCC_APB1PeriphResetCmd), (32 bytes).
    Removing stdperiphdriver.o(i.RCC_AdjustHSI14CalibrationValue), (32 bytes).
    Removing stdperiphdriver.o(i.RCC_AdjustHSICalibrationValue), (32 bytes).
    Removing stdperiphdriver.o(i.RCC_CECCLKConfig), (28 bytes).
    Removing stdperiphdriver.o(i.RCC_ClearFlag), (20 bytes).
    Removing stdperiphdriver.o(i.RCC_ClearITPendingBit), (12 bytes).
    Removing stdperiphdriver.o(i.RCC_ClockSecuritySystemCmd), (40 bytes).
    Removing stdperiphdriver.o(i.RCC_DeInit), (120 bytes).
    Removing stdperiphdriver.o(i.RCC_GetFlagStatus), (72 bytes).
    Removing stdperiphdriver.o(i.RCC_GetITStatus), (28 bytes).
    Removing stdperiphdriver.o(i.RCC_GetSYSCLKSource), (16 bytes).
    Removing stdperiphdriver.o(i.RCC_HCLKConfig), (32 bytes).
    Removing stdperiphdriver.o(i.RCC_HSEConfig), (16 bytes).
    Removing stdperiphdriver.o(i.RCC_HSI14ADCRequestCmd), (36 bytes).
    Removing stdperiphdriver.o(i.RCC_HSI14Cmd), (36 bytes).
    Removing stdperiphdriver.o(i.RCC_HSI48Cmd), (40 bytes).
    Removing stdperiphdriver.o(i.RCC_HSICmd), (36 bytes).
    Removing stdperiphdriver.o(i.RCC_I2CCLKConfig), (28 bytes).
    Removing stdperiphdriver.o(i.RCC_ITConfig), (32 bytes).
    Removing stdperiphdriver.o(i.RCC_LSEConfig), (40 bytes).
    Removing stdperiphdriver.o(i.RCC_LSEDriveConfig), (28 bytes).
    Removing stdperiphdriver.o(i.RCC_LSICmd), (36 bytes).
    Removing stdperiphdriver.o(i.RCC_MCOConfig), (12 bytes).
    Removing stdperiphdriver.o(i.RCC_PCLKConfig), (36 bytes).
    Removing stdperiphdriver.o(i.RCC_PLLCmd), (40 bytes).
    Removing stdperiphdriver.o(i.RCC_PLLConfig), (36 bytes).
    Removing stdperiphdriver.o(i.RCC_PREDIV1Config), (28 bytes).
    Removing stdperiphdriver.o(i.RCC_SYSCLKConfig), (28 bytes).
    Removing stdperiphdriver.o(i.RCC_USARTCLKConfig), (72 bytes).
    Removing stdperiphdriver.o(i.RCC_USBCLKConfig), (28 bytes).
    Removing stdperiphdriver.o(i.RCC_WaitForHSEStartUp), (60 bytes).
    Removing stdperiphdriver.o(i.RTC_AlarmCmd), (112 bytes).
    Removing stdperiphdriver.o(i.RTC_AlarmStructInit), (22 bytes).
    Removing stdperiphdriver.o(i.RTC_AlarmSubSecondConfig), (40 bytes).
    Removing stdperiphdriver.o(i.RTC_Bcd2ToByte), (26 bytes).
    Removing stdperiphdriver.o(i.RTC_BypassShadowCmd), (52 bytes).
    Removing stdperiphdriver.o(i.RTC_ByteToBcd2), (28 bytes).
    Removing stdperiphdriver.o(i.RTC_CalibOutputCmd), (56 bytes).
    Removing stdperiphdriver.o(i.RTC_CalibOutputConfig), (44 bytes).
    Removing stdperiphdriver.o(i.RTC_ClearFlag), (32 bytes).
    Removing stdperiphdriver.o(i.RTC_ClearITPendingBit), (36 bytes).
    Removing stdperiphdriver.o(i.RTC_DateStructInit), (14 bytes).
    Removing stdperiphdriver.o(i.RTC_DayLightSavingConfig), (48 bytes).
    Removing stdperiphdriver.o(i.RTC_DeInit), (116 bytes).
    Removing stdperiphdriver.o(i.RTC_GetAlarm), (120 bytes).
    Removing stdperiphdriver.o(i.RTC_GetAlarmSubSecond), (20 bytes).
    Removing stdperiphdriver.o(i.RTC_GetDate), (96 bytes).
    Removing stdperiphdriver.o(i.RTC_GetFlagStatus), (44 bytes).
    Removing stdperiphdriver.o(i.RTC_GetITStatus), (76 bytes).
    Removing stdperiphdriver.o(i.RTC_GetStoreOperation), (16 bytes).
    Removing stdperiphdriver.o(i.RTC_GetSubSecond), (16 bytes).
    Removing stdperiphdriver.o(i.RTC_GetTime), (92 bytes).
    Removing stdperiphdriver.o(i.RTC_GetTimeStamp), (164 bytes).
    Removing stdperiphdriver.o(i.RTC_GetTimeStampSubSecond), (12 bytes).
    Removing stdperiphdriver.o(i.RTC_GetWakeUpCounter), (12 bytes).
    Removing stdperiphdriver.o(i.RTC_ITConfig), (100 bytes).
    Removing stdperiphdriver.o(i.RTC_OutputConfig), (48 bytes).
    Removing stdperiphdriver.o(i.RTC_OutputTypeConfig), (28 bytes).
    Removing stdperiphdriver.o(i.RTC_ReadBackupRegister), (32 bytes).
    Removing stdperiphdriver.o(i.RTC_RefClockCmd), (76 bytes).
    Removing stdperiphdriver.o(i.RTC_SetAlarm), (216 bytes).
    Removing stdperiphdriver.o(i.RTC_SetDate), (208 bytes).
    Removing stdperiphdriver.o(i.RTC_SetTime), (216 bytes).
    Removing stdperiphdriver.o(i.RTC_SetWakeUpCounter), (24 bytes).
    Removing stdperiphdriver.o(i.RTC_SmoothCalibConfig), (96 bytes).
    Removing stdperiphdriver.o(i.RTC_StructInit), (14 bytes).
    Removing stdperiphdriver.o(i.RTC_SynchroShiftConfig), (124 bytes).
    Removing stdperiphdriver.o(i.RTC_TamperCmd), (32 bytes).
    Removing stdperiphdriver.o(i.RTC_TamperFilterConfig), (28 bytes).
    Removing stdperiphdriver.o(i.RTC_TamperPinsPrechargeDuration), (28 bytes).
    Removing stdperiphdriver.o(i.RTC_TamperPullUpCmd), (40 bytes).
    Removing stdperiphdriver.o(i.RTC_TamperSamplingFreqConfig), (28 bytes).
    Removing stdperiphdriver.o(i.RTC_TamperTriggerConfig), (36 bytes).
    Removing stdperiphdriver.o(i.RTC_TimeStampCmd), (64 bytes).
    Removing stdperiphdriver.o(i.RTC_TimeStampOnTamperDetectionCmd), (36 bytes).
    Removing stdperiphdriver.o(i.RTC_TimeStructInit), (12 bytes).
    Removing stdperiphdriver.o(i.RTC_WakeUpClockConfig), (40 bytes).
    Removing stdperiphdriver.o(i.RTC_WakeUpCmd), (116 bytes).
    Removing stdperiphdriver.o(i.RTC_WriteBackupRegister), (28 bytes).
    Removing stdperiphdriver.o(i.RTC_WriteProtectionCmd), (28 bytes).
    Removing stdperiphdriver.o(i.SPI_BiDirectionalLineConfig), (32 bytes).
    Removing stdperiphdriver.o(i.SPI_CRCLengthConfig), (20 bytes).
    Removing stdperiphdriver.o(i.SPI_CalculateCRC), (32 bytes).
    Removing stdperiphdriver.o(i.SPI_Cmd), (28 bytes).
    Removing stdperiphdriver.o(i.SPI_DataSizeConfig), (24 bytes).
    Removing stdperiphdriver.o(i.SPI_GetCRC), (16 bytes).
    Removing stdperiphdriver.o(i.SPI_GetCRCPolynomial), (6 bytes).
    Removing stdperiphdriver.o(i.SPI_GetReceptionFIFOStatus), (12 bytes).
    Removing stdperiphdriver.o(i.SPI_GetTransmissionFIFOStatus), (12 bytes).
    Removing stdperiphdriver.o(i.SPI_I2S_ClearFlag), (6 bytes).
    Removing stdperiphdriver.o(i.SPI_I2S_DMACmd), (20 bytes).
    Removing stdperiphdriver.o(i.SPI_I2S_DeInit), (60 bytes).
    Removing stdperiphdriver.o(i.SPI_I2S_GetFlagStatus), (20 bytes).
    Removing stdperiphdriver.o(i.SPI_I2S_GetITStatus), (56 bytes).
    Removing stdperiphdriver.o(i.SPI_I2S_ITConfig), (34 bytes).
    Removing stdperiphdriver.o(i.SPI_I2S_ReceiveData16), (6 bytes).
    Removing stdperiphdriver.o(i.SPI_I2S_SendData16), (4 bytes).
    Removing stdperiphdriver.o(i.SPI_Init), (88 bytes).
    Removing stdperiphdriver.o(i.SPI_LastDMATransferCmd), (20 bytes).
    Removing stdperiphdriver.o(i.SPI_NSSInternalSoftwareConfig), (32 bytes).
    Removing stdperiphdriver.o(i.SPI_NSSPulseModeCmd), (28 bytes).
    Removing stdperiphdriver.o(i.SPI_ReceiveData8), (12 bytes).
    Removing stdperiphdriver.o(i.SPI_RxFIFOThresholdConfig), (20 bytes).
    Removing stdperiphdriver.o(i.SPI_SSOutputCmd), (28 bytes).
    Removing stdperiphdriver.o(i.SPI_SendData8), (10 bytes).
    Removing stdperiphdriver.o(i.SPI_StructInit), (30 bytes).
    Removing stdperiphdriver.o(i.SPI_TIModeCmd), (28 bytes).
    Removing stdperiphdriver.o(i.SPI_TransmitCRC), (12 bytes).
    Removing stdperiphdriver.o(i.SYSCFG_BreakConfig), (16 bytes).
    Removing stdperiphdriver.o(i.SYSCFG_ClearFlag), (16 bytes).
    Removing stdperiphdriver.o(i.SYSCFG_DMAChannelRemapConfig), (32 bytes).
    Removing stdperiphdriver.o(i.SYSCFG_DeInit), (44 bytes).
    Removing stdperiphdriver.o(i.SYSCFG_EXTILineConfig), (64 bytes).
    Removing stdperiphdriver.o(i.SYSCFG_GetFlagStatus), (32 bytes).
    Removing stdperiphdriver.o(i.SYSCFG_GetPendingIT), (24 bytes).
    Removing stdperiphdriver.o(i.SYSCFG_I2CFastModePlusConfig), (32 bytes).
    Removing stdperiphdriver.o(i.SYSCFG_IRDAEnvSelection), (28 bytes).
    Removing stdperiphdriver.o(i.SysTick_CLKSourceConfig), (36 bytes).
    Removing stdperiphdriver.o(i.TI1_Config), (56 bytes).
    Removing stdperiphdriver.o(i.TI2_Config), (76 bytes).
    Removing stdperiphdriver.o(i.TI3_Config), (72 bytes).
    Removing stdperiphdriver.o(i.TI4_Config), (80 bytes).
    Removing stdperiphdriver.o(i.TIM_ARRPreloadConfig), (28 bytes).
    Removing stdperiphdriver.o(i.TIM_BDTRConfig), (32 bytes).
    Removing stdperiphdriver.o(i.TIM_BDTRStructInit), (18 bytes).
    Removing stdperiphdriver.o(i.TIM_CCPreloadControl), (28 bytes).
    Removing stdperiphdriver.o(i.TIM_CCxCmd), (30 bytes).
    Removing stdperiphdriver.o(i.TIM_CCxNCmd), (30 bytes).
    Removing stdperiphdriver.o(i.TIM_ClearITPendingBit), (6 bytes).
    Removing stdperiphdriver.o(i.TIM_ClearOC1Ref), (24 bytes).
    Removing stdperiphdriver.o(i.TIM_ClearOC2Ref), (20 bytes).
    Removing stdperiphdriver.o(i.TIM_ClearOC3Ref), (24 bytes).
    Removing stdperiphdriver.o(i.TIM_ClearOC4Ref), (20 bytes).
    Removing stdperiphdriver.o(i.TIM_CounterModeConfig), (24 bytes).
    Removing stdperiphdriver.o(i.TIM_DMACmd), (20 bytes).
    Removing stdperiphdriver.o(i.TIM_DMAConfig), (12 bytes).
    Removing stdperiphdriver.o(i.TIM_DeInit), (260 bytes).
    Removing stdperiphdriver.o(i.TIM_ETRClockMode1Config), (52 bytes).
    Removing stdperiphdriver.o(i.TIM_ETRClockMode2Config), (34 bytes).
    Removing stdperiphdriver.o(i.TIM_ETRConfig), (24 bytes).
    Removing stdperiphdriver.o(i.TIM_EncoderInterfaceConfig), (68 bytes).
    Removing stdperiphdriver.o(i.TIM_ForcedOC1Config), (24 bytes).
    Removing stdperiphdriver.o(i.TIM_ForcedOC2Config), (24 bytes).
    Removing stdperiphdriver.o(i.TIM_ForcedOC3Config), (24 bytes).
    Removing stdperiphdriver.o(i.TIM_ForcedOC4Config), (24 bytes).
    Removing stdperiphdriver.o(i.TIM_GetCapture1), (6 bytes).
    Removing stdperiphdriver.o(i.TIM_GetCapture2), (6 bytes).
    Removing stdperiphdriver.o(i.TIM_GetCapture3), (6 bytes).
    Removing stdperiphdriver.o(i.TIM_GetCapture4), (6 bytes).
    Removing stdperiphdriver.o(i.TIM_GetCounter), (6 bytes).
    Removing stdperiphdriver.o(i.TIM_GetITStatus), (38 bytes).
    Removing stdperiphdriver.o(i.TIM_GetPrescaler), (6 bytes).
    Removing stdperiphdriver.o(i.TIM_ICInit), (112 bytes).
    Removing stdperiphdriver.o(i.TIM_ICStructInit), (18 bytes).
    Removing stdperiphdriver.o(i.TIM_ITRxExternalClockConfig), (24 bytes).
    Removing stdperiphdriver.o(i.TIM_InternalClockConfig), (16 bytes).
    Removing stdperiphdriver.o(i.TIM_OC1FastConfig), (24 bytes).
    Removing stdperiphdriver.o(i.TIM_OC1NPolarityConfig), (24 bytes).
    Removing stdperiphdriver.o(i.TIM_OC1PolarityConfig), (24 bytes).
    Removing stdperiphdriver.o(i.TIM_OC2FastConfig), (24 bytes).
    Removing stdperiphdriver.o(i.TIM_OC2NPolarityConfig), (24 bytes).
    Removing stdperiphdriver.o(i.TIM_OC2PolarityConfig), (24 bytes).
    Removing stdperiphdriver.o(i.TIM_OC3FastConfig), (24 bytes).
    Removing stdperiphdriver.o(i.TIM_OC3NPolarityConfig), (24 bytes).
    Removing stdperiphdriver.o(i.TIM_OC3PolarityConfig), (24 bytes).
    Removing stdperiphdriver.o(i.TIM_OC4FastConfig), (24 bytes).
    Removing stdperiphdriver.o(i.TIM_OC4PolarityConfig), (24 bytes).
    Removing stdperiphdriver.o(i.TIM_OCStructInit), (20 bytes).
    Removing stdperiphdriver.o(i.TIM_PWMIConfig), (124 bytes).
    Removing stdperiphdriver.o(i.TIM_PrescalerConfig), (6 bytes).
    Removing stdperiphdriver.o(i.TIM_RemapConfig), (6 bytes).
    Removing stdperiphdriver.o(i.TIM_SelectCCDMA), (28 bytes).
    Removing stdperiphdriver.o(i.TIM_SelectCOM), (28 bytes).
    Removing stdperiphdriver.o(i.TIM_SelectHallSensor), (28 bytes).
    Removing stdperiphdriver.o(i.TIM_SelectInputTrigger), (24 bytes).
    Removing stdperiphdriver.o(i.TIM_SelectMasterSlaveMode), (20 bytes).
    Removing stdperiphdriver.o(i.TIM_SelectOCREFClear), (20 bytes).
    Removing stdperiphdriver.o(i.TIM_SelectOCxM), (82 bytes).
    Removing stdperiphdriver.o(i.TIM_SelectOnePulseMode), (20 bytes).
    Removing stdperiphdriver.o(i.TIM_SelectOutputTrigger), (20 bytes).
    Removing stdperiphdriver.o(i.TIM_SelectSlaveMode), (20 bytes).
    Removing stdperiphdriver.o(i.TIM_SetAutoreload), (4 bytes).
    Removing stdperiphdriver.o(i.TIM_SetClockDivision), (20 bytes).
    Removing stdperiphdriver.o(i.TIM_SetCounter), (4 bytes).
    Removing stdperiphdriver.o(i.TIM_SetIC1Prescaler), (20 bytes).
    Removing stdperiphdriver.o(i.TIM_SetIC2Prescaler), (24 bytes).
    Removing stdperiphdriver.o(i.TIM_SetIC3Prescaler), (20 bytes).
    Removing stdperiphdriver.o(i.TIM_SetIC4Prescaler), (24 bytes).
    Removing stdperiphdriver.o(i.TIM_TIxExternalClockConfig), (58 bytes).
    Removing stdperiphdriver.o(i.TIM_TimeBaseStructInit), (18 bytes).
    Removing stdperiphdriver.o(i.TIM_UpdateDisableConfig), (28 bytes).
    Removing stdperiphdriver.o(i.TIM_UpdateRequestConfig), (28 bytes).
    Removing stdperiphdriver.o(i.USART_AddressDetectionConfig), (16 bytes).
    Removing stdperiphdriver.o(i.USART_AutoBaudRateCmd), (28 bytes).
    Removing stdperiphdriver.o(i.USART_AutoBaudRateConfig), (18 bytes).
    Removing stdperiphdriver.o(i.USART_ClearFlag), (4 bytes).
    Removing stdperiphdriver.o(i.USART_ClockInit), (36 bytes).
    Removing stdperiphdriver.o(i.USART_ClockStructInit), (12 bytes).
    Removing stdperiphdriver.o(i.USART_DECmd), (28 bytes).
    Removing stdperiphdriver.o(i.USART_DEPolarityConfig), (18 bytes).
    Removing stdperiphdriver.o(i.USART_DMACmd), (20 bytes).
    Removing stdperiphdriver.o(i.USART_DMAReceptionErrorConfig), (18 bytes).
    Removing stdperiphdriver.o(i.USART_DataInvCmd), (28 bytes).
    Removing stdperiphdriver.o(i.USART_DeInit), (240 bytes).
    Removing stdperiphdriver.o(i.USART_DirectionModeCmd), (20 bytes).
    Removing stdperiphdriver.o(i.USART_GetFlagStatus), (20 bytes).
    Removing stdperiphdriver.o(i.USART_HalfDuplexCmd), (24 bytes).
    Removing stdperiphdriver.o(i.USART_InvPinCmd), (20 bytes).
    Removing stdperiphdriver.o(i.USART_IrDACmd), (24 bytes).
    Removing stdperiphdriver.o(i.USART_IrDAConfig), (16 bytes).
    Removing stdperiphdriver.o(i.USART_LINBreakDetectLengthConfig), (16 bytes).
    Removing stdperiphdriver.o(i.USART_LINCmd), (28 bytes).
    Removing stdperiphdriver.o(i.USART_MSBFirstCmd), (28 bytes).
    Removing stdperiphdriver.o(i.USART_MuteModeCmd), (28 bytes).
    Removing stdperiphdriver.o(i.USART_MuteModeWakeUpConfig), (18 bytes).
    Removing stdperiphdriver.o(i.USART_OneBitMethodCmd), (28 bytes).
    Removing stdperiphdriver.o(i.USART_OverSampling8Cmd), (28 bytes).
    Removing stdperiphdriver.o(i.USART_OverrunDetectionConfig), (18 bytes).
    Removing stdperiphdriver.o(i.USART_ReceiveData), (10 bytes).
    Removing stdperiphdriver.o(i.USART_ReceiverTimeOutCmd), (28 bytes).
    Removing stdperiphdriver.o(i.USART_RequestCmd), (20 bytes).
    Removing stdperiphdriver.o(i.USART_STOPModeCmd), (24 bytes).
    Removing stdperiphdriver.o(i.USART_SWAPPinCmd), (28 bytes).
    Removing stdperiphdriver.o(i.USART_SendData), (8 bytes).
    Removing stdperiphdriver.o(i.USART_SetAddress), (18 bytes).
    Removing stdperiphdriver.o(i.USART_SetAutoRetryCount), (20 bytes).
    Removing stdperiphdriver.o(i.USART_SetBlockLength), (18 bytes).
    Removing stdperiphdriver.o(i.USART_SetDEAssertionTime), (20 bytes).
    Removing stdperiphdriver.o(i.USART_SetDEDeassertionTime), (20 bytes).
    Removing stdperiphdriver.o(i.USART_SetGuardTime), (16 bytes).
    Removing stdperiphdriver.o(i.USART_SetPrescaler), (18 bytes).
    Removing stdperiphdriver.o(i.USART_SetReceiverTimeOut), (16 bytes).
    Removing stdperiphdriver.o(i.USART_SmartCardCmd), (24 bytes).
    Removing stdperiphdriver.o(i.USART_SmartCardNACKCmd), (24 bytes).
    Removing stdperiphdriver.o(i.USART_StopModeWakeUpSourceConfig), (18 bytes).
    Removing stdperiphdriver.o(i.USART_StructInit), (24 bytes).
    Removing stdperiphdriver.o(i.WWDG_ClearFlag), (12 bytes).
    Removing stdperiphdriver.o(i.WWDG_DeInit), (22 bytes).
    Removing stdperiphdriver.o(i.WWDG_Enable), (16 bytes).
    Removing stdperiphdriver.o(i.WWDG_EnableIT), (20 bytes).
    Removing stdperiphdriver.o(i.WWDG_GetFlagStatus), (24 bytes).
    Removing stdperiphdriver.o(i.WWDG_SetCounter), (16 bytes).
    Removing stdperiphdriver.o(i.WWDG_SetPrescaler), (32 bytes).
    Removing stdperiphdriver.o(i.WWDG_SetWindowValue), (40 bytes).
    Removing startup_stm32f0xx.o(HEAP), (512 bytes).
    Removing adc.o(.rev16_text), (4 bytes).
    Removing adc.o(.revsh_text), (4 bytes).
    Removing adc.o(i.ADC_vDeInit), (2 bytes).
    Removing buffer.o(i.BUFFER_SCB_vDeInit), (2 bytes).
    Removing clock.o(.rev16_text), (4 bytes).
    Removing clock.o(.revsh_text), (4 bytes).
    Removing clock.o(i.CLOCK_vDeInit), (2 bytes).
    Removing clock.o(i.CLOCK_vSysCoreClkUpdate), (180 bytes).
    Removing clock.o(.data), (20 bytes).
    Removing eeprom.o(.rev16_text), (4 bytes).
    Removing eeprom.o(.revsh_text), (4 bytes).
    Removing eeprom.o(i.EEPROM_vDeInit), (2 bytes).
    Removing flash.o(.rev16_text), (4 bytes).
    Removing flash.o(.revsh_text), (4 bytes).
    Removing flash.o(i.FLASH_u16ReadHalfWordFlash), (16 bytes).
    Removing flash.o(i.FLASH_u8AppWr), (38 bytes).
    Removing flash.o(i.FLASH_u8AppWr32), (80 bytes).
    Removing flash.o(i.FLASH_u8ReadBlExistFlg), (32 bytes).
    Removing flash.o(i.FLASH_vDeInit), (2 bytes).
    Removing flash.o(i.mg_u8MemoryWr), (76 bytes).
    Removing main.o(.bss), (100 bytes).
    Removing main.o(.data), (4 bytes).
    Removing port.o(.rev16_text), (4 bytes).
    Removing port.o(.revsh_text), (4 bytes).
    Removing port.o(i.PORT_vDeInit), (88 bytes).
    Removing pwm.o(.rev16_text), (4 bytes).
    Removing pwm.o(.revsh_text), (4 bytes).
    Removing pwm.o(i.PWM_vDeInit), (2 bytes).
    Removing rte.o(i.RTE_vDeInit), (2 bytes).
    Removing schm.o(i.SCHM_vDeInit), (2 bytes).
    Removing timer.o(.rev16_text), (4 bytes).
    Removing timer.o(.revsh_text), (4 bytes).
    Removing timer.o(i.TIMER_vDeInit), (2 bytes).
    Removing wdg.o(.rev16_text), (4 bytes).
    Removing wdg.o(.revsh_text), (4 bytes).
    Removing wdg.o(i.WDG_vDeInit), (2 bytes).
    Removing wdg.o(i.WDG_vInit), (40 bytes).
    Removing wdg.o(i.WDG_vSysReset), (16 bytes).
    Removing wdg.o(i.WDG_vWatchDogEn), (24 bytes).
    Removing wdg.o(i.WDG_vWatchDogFeed), (16 bytes).
    Removing wdg.o(i.WDG_vWdgSetTimeOutDly), (72 bytes).
    Removing crc.o(i.CRC_vDeInit), (2 bytes).
    Removing i2c.o(.rev16_text), (4 bytes).
    Removing i2c.o(.revsh_text), (4 bytes).
    Removing i2c.o(i.I2C_vDeInit), (2 bytes).
    Removing rtc.o(.rev16_text), (4 bytes).
    Removing rtc.o(.revsh_text), (4 bytes).
    Removing rtc.o(i.RTC_vDeInit), (2 bytes).
    Removing cali.o(i.CALI_vCalibrateIout), (32 bytes).
    Removing cali.o(i.CALI_vDeInit), (2 bytes).
    Removing uart.o(.rev16_text), (4 bytes).
    Removing uart.o(.revsh_text), (4 bytes).
    Removing uart.o(i.UART_u8UartReadRxIsrFlg), (24 bytes).
    Removing uart.o(i.UART_vDeInit), (2 bytes).
    Removing i2cprt.o(.rev16_text), (4 bytes).
    Removing i2cprt.o(.revsh_text), (4 bytes).
    Removing i2cprt.o(i.I2CPRT_vDeInit), (2 bytes).
    Removing i2cprt.o(i.I2CPRT_vSetI2cState), (12 bytes).
    Removing i2cprt.o(i.I2CPRT_vUpdateI2cAddress), (208 bytes).
    Removing i2cprt.o(i.mg_vSetI2cAddress), (64 bytes).
    Removing i2cprt.o(.constdata), (144 bytes).
    Removing mem.o(i.MEM_u16GetOffset), (16 bytes).
    Removing mem.o(i.MEM_vDeInit), (2 bytes).
    Removing mem.o(i.MEM_vReadBlcBoxPageWrDis), (20 bytes).
    Removing mem.o(i.MEM_vWriteBlcBoxPageWrDis), (16 bytes).
    Removing hwio.o(i.HWIO_vDeInit), (2 bytes).
    Removing hwio.o(i.HWIO_vEnablePwm), (2 bytes).
    Removing uartprt.o(i.UARTPRT_vDeInit), (2 bytes).
    Removing s_dam.o(i.S_DAM_SCB_vInit), (36 bytes).
    Removing s_dam.o(i.S_DAM_bResetRecord), (104 bytes).
    Removing s_dam.o(i.S_DAM_bWriteToRecord), (292 bytes).
    Removing s_dam.o(i.S_DAM_u32GetFirstRecordId), (148 bytes).
    Removing s_dam.o(i.S_DAM_u32GetNumberOfRecords), (96 bytes).
    Removing s_dam.o(i.S_DAM_vReset), (48 bytes).
    Removing pmbus.o(.rev16_text), (4 bytes).
    Removing pmbus.o(.revsh_text), (4 bytes).
    Removing pmbus.o(i.PMBUS_u8GetBootMcuId), (12 bytes).
    Removing pmbus.o(i.PMBUS_vClearAllPageFault), (8 bytes).
    Removing pmbus.o(i.PMBUS_vDeInit), (2 bytes).
    Removing pmbus.o(i.mg_s32LinearDatFormatToNormal), (118 bytes).
    Removing pmbus.o(i.mg_vClearPage00Fault), (172 bytes).
    Removing pmbus.o(i.mg_vClearPage01Fault), (152 bytes).
    Removing pmbus.o(i.mg_vClearPageAllFault), (12 bytes).
    Removing pmbus.o(i.mg_vSendQuerydata), (296 bytes).
    Removing pmbus.o(i.mg_vSendSmbMaskdata), (380 bytes).
    Removing fanctrl.o(i.FANCTRL_SCFG_u8RdFan1Status), (4 bytes).
    Removing fanctrl.o(i.FANCTRL_SCFG_u8RdFan2Status), (4 bytes).
    Removing fanctrl.o(i.FANCTRL_SCFG_vSetFan1Duty), (2 bytes).
    Removing fanctrl.o(i.FANCTRL_SCFG_vSetFan2Duty), (2 bytes).
    Removing fanctrl.o(i.FANCTRL_u8ReadFanBitOvrd), (32 bytes).
    Removing fanctrl.o(i.FANCTRL_vDeInit), (2 bytes).
    Removing fanctrl.o(.constdata), (16 bytes).
    Removing monctrl.o(i.MONCTRL_vClearFault), (2 bytes).
    Removing monctrl.o(i.MONCTRL_vDeInit), (2 bytes).
    Removing psuctrl.o(i.PSUCTRL_vDeInit), (2 bytes).
    Removing tempctrl.o(i.TEMPCTRL_vDeInit), (2 bytes).
    Removing tempctrl.o(i.TEMPCTRL_vSetOtWarnValue), (16 bytes).
    Removing ledctrl.o(i.LEDCTRL_vDeInit), (2 bytes).
    Removing timectrl.o(.rev16_text), (4 bytes).
    Removing timectrl.o(.revsh_text), (4 bytes).
    Removing timectrl.o(i.TIMECTRL_vDeInit), (2 bytes).
    Removing intcom.o(i.INTCOM_vDeInit), (2 bytes).
    Removing blabox.o(i.BLABOX_vGetEnableBlackbox), (24 bytes).
    Removing blabox.o(i.BLABOX_vGetRealTimeClockDataSystemBlackbox), (12 bytes).
    Removing blabox.o(i.BLABOX_vMFR_BLABOX), (236 bytes).
    Removing blabox.o(i.FANCTRL_SCFG_u8RdFan1Status), (4 bytes).
    Removing blabox.o(i.FANCTRL_SCFG_u8RdFan2Status), (4 bytes).
    Removing blabox.o(i.FANCTRL_SCFG_vSetFan1Duty), (2 bytes).
    Removing blabox.o(i.FANCTRL_SCFG_vSetFan2Duty), (2 bytes).
    Removing blabox.o(.constdata), (52 bytes).
    Removing fmul.o(.text), (122 bytes).
    Removing ffltui.o(.text), (14 bytes).
    Removing ffixui.o(.text), (40 bytes).
    Removing fepilogue.o(.text), (130 bytes).

587 unused section(s) (total 22780 bytes) removed from the image.

==============================================================================

Image Symbol Table

    Local Symbols

    Symbol Name                              Value     Ov Type        Size  Object(Section)

    ../clib/../cmprslib/zerorunl2.c          0x00000000   Number         0  __dczerorl2.o ABSOLUTE
    ../clib/microlib/division.c              0x00000000   Number         0  uidiv.o ABSOLUTE
    ../clib/microlib/division.c              0x00000000   Number         0  idiv.o ABSOLUTE
    ../clib/microlib/init/entry.s            0x00000000   Number         0  entry9a.o ABSOLUTE
    ../clib/microlib/init/entry.s            0x00000000   Number         0  entry5.o ABSOLUTE
    ../clib/microlib/init/entry.s            0x00000000   Number         0  entry8b.o ABSOLUTE
    ../clib/microlib/init/entry.s            0x00000000   Number         0  entry8a.o ABSOLUTE
    ../clib/microlib/init/entry.s            0x00000000   Number         0  entry7a.o ABSOLUTE
    ../clib/microlib/init/entry.s            0x00000000   Number         0  entry.o ABSOLUTE
    ../clib/microlib/init/entry.s            0x00000000   Number         0  entry11b.o ABSOLUTE
    ../clib/microlib/init/entry.s            0x00000000   Number         0  entry11a.o ABSOLUTE
    ../clib/microlib/init/entry.s            0x00000000   Number         0  entry10b.o ABSOLUTE
    ../clib/microlib/init/entry.s            0x00000000   Number         0  entry10a.o ABSOLUTE
    ../clib/microlib/init/entry.s            0x00000000   Number         0  entry2.o ABSOLUTE
    ../clib/microlib/init/entry.s            0x00000000   Number         0  entry9b.o ABSOLUTE
    ../clib/microlib/init/entry.s            0x00000000   Number         0  entry7b.o ABSOLUTE
    ../clib/microlib/stubs.s                 0x00000000   Number         0  iusefp.o ABSOLUTE
    ../fplib/microlib/fpepilogue.c           0x00000000   Number         0  fepilogue.o ABSOLUTE
    ../fplib/microlib/fpfix.c                0x00000000   Number         0  ffixui.o ABSOLUTE
    ../fplib/microlib/fpflt.c                0x00000000   Number         0  ffltui.o ABSOLUTE
    ../fplib/microlib/fpmul.c                0x00000000   Number         0  fmul.o ABSOLUTE
    ..\30_Bsw\adc\adc.c                      0x00000000   Number         0  adc.o ABSOLUTE
    ..\30_Bsw\buffer\buffer.c                0x00000000   Number         0  buffer.o ABSOLUTE
    ..\30_Bsw\cali\cali.c                    0x00000000   Number         0  cali.o ABSOLUTE
    ..\30_Bsw\clock\clock.c                  0x00000000   Number         0  clock.o ABSOLUTE
    ..\30_Bsw\crc\crc.c                      0x00000000   Number         0  crc.o ABSOLUTE
    ..\30_Bsw\dam\s_dam.c                    0x00000000   Number         0  s_dam.o ABSOLUTE
    ..\30_Bsw\eeprom\eeprom.c                0x00000000   Number         0  eeprom.o ABSOLUTE
    ..\30_Bsw\flash\flash.c                  0x00000000   Number         0  flash.o ABSOLUTE
    ..\30_Bsw\hwio\hwio.c                    0x00000000   Number         0  hwio.o ABSOLUTE
    ..\30_Bsw\i2c\i2c.c                      0x00000000   Number         0  i2c.o ABSOLUTE
    ..\30_Bsw\i2cprt\i2cprt.c                0x00000000   Number         0  i2cprt.o ABSOLUTE
    ..\30_Bsw\main\main.c                    0x00000000   Number         0  main.o ABSOLUTE
    ..\30_Bsw\mem\mem.c                      0x00000000   Number         0  mem.o ABSOLUTE
    ..\30_Bsw\port\port.c                    0x00000000   Number         0  port.o ABSOLUTE
    ..\30_Bsw\pwm\pwm.c                      0x00000000   Number         0  pwm.o ABSOLUTE
    ..\30_Bsw\rtc\rtc.c                      0x00000000   Number         0  rtc.o ABSOLUTE
    ..\30_Bsw\rte\rte.c                      0x00000000   Number         0  rte.o ABSOLUTE
    ..\30_Bsw\schm\schm.c                    0x00000000   Number         0  schm.o ABSOLUTE
    ..\30_Bsw\timer\timer.c                  0x00000000   Number         0  timer.o ABSOLUTE
    ..\30_Bsw\uart\uart.c                    0x00000000   Number         0  uart.o ABSOLUTE
    ..\30_Bsw\uartprt\uartprt.c              0x00000000   Number         0  uartprt.o ABSOLUTE
    ..\30_Bsw\wdg\wdg.c                      0x00000000   Number         0  wdg.o ABSOLUTE
    ..\40_Appl\blabox\blabox.c               0x00000000   Number         0  blabox.o ABSOLUTE
    ..\40_Appl\fanctrl\fanctrl.c             0x00000000   Number         0  fanctrl.o ABSOLUTE
    ..\40_Appl\intcom\intcom.c               0x00000000   Number         0  intcom.o ABSOLUTE
    ..\40_Appl\ledctrl\ledctrl.c             0x00000000   Number         0  ledctrl.o ABSOLUTE
    ..\40_Appl\monctrl\monctrl.c             0x00000000   Number         0  monctrl.o ABSOLUTE
    ..\40_Appl\pmbus\pmbus.c                 0x00000000   Number         0  pmbus.o ABSOLUTE
    ..\40_Appl\psuctrl\psuctrl.c             0x00000000   Number         0  psuctrl.o ABSOLUTE
    ..\40_Appl\tempctrl\tempctrl.c           0x00000000   Number         0  tempctrl.o ABSOLUTE
    ..\40_Appl\timectrl\timectrl.c           0x00000000   Number         0  timectrl.o ABSOLUTE
    ..\50_Lib\Assembly\startup_stm32f0xx.s   0x00000000   Number         0  startup_stm32f0xx.o ABSOLUTE
    ..\50_Lib\driverlib\StdPeriphDriver.c    0x00000000   Number         0  stdperiphdriver.o ABSOLUTE
    ..\\30_Bsw\\adc\\adc.c                   0x00000000   Number         0  adc.o ABSOLUTE
    ..\\30_Bsw\\clock\\clock.c               0x00000000   Number         0  clock.o ABSOLUTE
    ..\\30_Bsw\\eeprom\\eeprom.c             0x00000000   Number         0  eeprom.o ABSOLUTE
    ..\\30_Bsw\\flash\\flash.c               0x00000000   Number         0  flash.o ABSOLUTE
    ..\\30_Bsw\\i2c\\i2c.c                   0x00000000   Number         0  i2c.o ABSOLUTE
    ..\\30_Bsw\\i2cprt\\i2cprt.c             0x00000000   Number         0  i2cprt.o ABSOLUTE
    ..\\30_Bsw\\port\\port.c                 0x00000000   Number         0  port.o ABSOLUTE
    ..\\30_Bsw\\pwm\\pwm.c                   0x00000000   Number         0  pwm.o ABSOLUTE
    ..\\30_Bsw\\rtc\\rtc.c                   0x00000000   Number         0  rtc.o ABSOLUTE
    ..\\30_Bsw\\timer\\timer.c               0x00000000   Number         0  timer.o ABSOLUTE
    ..\\30_Bsw\\uart\\uart.c                 0x00000000   Number         0  uart.o ABSOLUTE
    ..\\30_Bsw\\wdg\\wdg.c                   0x00000000   Number         0  wdg.o ABSOLUTE
    ..\\40_Appl\\pmbus\\pmbus.c              0x00000000   Number         0  pmbus.o ABSOLUTE
    ..\\40_Appl\\timectrl\\timectrl.c        0x00000000   Number         0  timectrl.o ABSOLUTE
    ..\\50_Lib\\driverlib\\StdPeriphDriver.c 0x00000000   Number         0  stdperiphdriver.o ABSOLUTE
    dc.s                                     0x00000000   Number         0  dc.o ABSOLUTE
    handlers.s                               0x00000000   Number         0  handlers.o ABSOLUTE
    init.s                                   0x00000000   Number         0  init.o ABSOLUTE
    .ARM.__AT_0x08000000                     0x08000000   Section        8  flash.o(.ARM.__AT_0x08000000)
    .ARM.__AT_0x08004000                     0x08004000   Section       16  flash.o(.ARM.__AT_0x08004000)
    RESET                                    0x08004010   Section      192  startup_stm32f0xx.o(RESET)
    .ARM.Collect$$$$00000000                 0x080040d0   Section        0  entry.o(.ARM.Collect$$$$00000000)
    .ARM.Collect$$$$00000001                 0x080040d0   Section        4  entry2.o(.ARM.Collect$$$$00000001)
    .ARM.Collect$$$$00000004                 0x080040d4   Section        4  entry5.o(.ARM.Collect$$$$00000004)
    .ARM.Collect$$$$00000008                 0x080040d8   Section        0  entry7b.o(.ARM.Collect$$$$00000008)
    .ARM.Collect$$$$0000000A                 0x080040d8   Section        0  entry8b.o(.ARM.Collect$$$$0000000A)
    .ARM.Collect$$$$0000000B                 0x080040d8   Section        8  entry9a.o(.ARM.Collect$$$$0000000B)
    .ARM.Collect$$$$0000000D                 0x080040e0   Section        0  entry10a.o(.ARM.Collect$$$$0000000D)
    .ARM.Collect$$$$0000000F                 0x080040e0   Section        0  entry11a.o(.ARM.Collect$$$$0000000F)
    .ARM.Collect$$$$00002712                 0x080040e0   Section        4  entry2.o(.ARM.Collect$$$$00002712)
    __lit__00000000                          0x080040e0   Data           4  entry2.o(.ARM.Collect$$$$00002712)
    .text                                    0x080040e4   Section       28  startup_stm32f0xx.o(.text)
    .text                                    0x08004100   Section        0  uidiv.o(.text)
    .text                                    0x0800412c   Section        0  idiv.o(.text)
    .text                                    0x08004154   Section       36  init.o(.text)
    .text                                    0x08004178   Section        0  __dczerorl2.o(.text)
    i.ADC_ChannelConfig                      0x080041ce   Section        0  stdperiphdriver.o(i.ADC_ChannelConfig)
    i.ADC_Cmd                                0x080041e6   Section        0  stdperiphdriver.o(i.ADC_Cmd)
    i.ADC_DMACmd                             0x080041fe   Section        0  stdperiphdriver.o(i.ADC_DMACmd)
    i.ADC_DMARequestModeConfig               0x08004216   Section        0  stdperiphdriver.o(i.ADC_DMARequestModeConfig)
    i.ADC_DeInit                             0x08004228   Section        0  stdperiphdriver.o(i.ADC_DeInit)
    i.ADC_GetCalibrationFactor               0x08004248   Section        0  stdperiphdriver.o(i.ADC_GetCalibrationFactor)
    i.ADC_GetFlagStatus                      0x08004284   Section        0  stdperiphdriver.o(i.ADC_GetFlagStatus)
    i.ADC_Init                               0x080042b4   Section        0  stdperiphdriver.o(i.ADC_Init)
    i.ADC_StartOfConversion                  0x080042e0   Section        0  stdperiphdriver.o(i.ADC_StartOfConversion)
    i.ADC_StructInit                         0x080042ea   Section        0  stdperiphdriver.o(i.ADC_StructInit)
    i.ADC_vInit                              0x080042fc   Section        0  adc.o(i.ADC_vInit)
    i.ADC_vReadRaw                           0x080043e4   Section        0  adc.o(i.ADC_vReadRaw)
    i.BLABOX_Rte_Read_B_R_AC_POWER_FAULT     0x080043f4   Section        0  blabox.o(i.BLABOX_Rte_Read_B_R_AC_POWER_FAULT)
    BLABOX_Rte_Read_B_R_AC_POWER_FAULT       0x080043f5   Thumb Code    10  blabox.o(i.BLABOX_Rte_Read_B_R_AC_POWER_FAULT)
    i.BLABOX_Rte_Read_B_R_AUX_MODE           0x08004404   Section        0  blabox.o(i.BLABOX_Rte_Read_B_R_AUX_MODE)
    BLABOX_Rte_Read_B_R_AUX_MODE             0x08004405   Thumb Code    10  blabox.o(i.BLABOX_Rte_Read_B_R_AUX_MODE)
    i.BLABOX_Rte_Read_B_R_FAN_WARN           0x08004414   Section        0  blabox.o(i.BLABOX_Rte_Read_B_R_FAN_WARN)
    BLABOX_Rte_Read_B_R_FAN_WARN             0x08004415   Thumb Code    30  blabox.o(i.BLABOX_Rte_Read_B_R_FAN_WARN)
    i.BLABOX_Rte_Read_B_R_IOUT_OC_FAULT      0x08004434   Section        0  blabox.o(i.BLABOX_Rte_Read_B_R_IOUT_OC_FAULT)
    BLABOX_Rte_Read_B_R_IOUT_OC_FAULT        0x08004435   Thumb Code    42  blabox.o(i.BLABOX_Rte_Read_B_R_IOUT_OC_FAULT)
    i.BLABOX_Rte_Read_B_R_IOUT_WARN          0x08004468   Section        0  blabox.o(i.BLABOX_Rte_Read_B_R_IOUT_WARN)
    BLABOX_Rte_Read_B_R_IOUT_WARN            0x08004469   Thumb Code    10  blabox.o(i.BLABOX_Rte_Read_B_R_IOUT_WARN)
    i.BLABOX_Rte_Read_B_R_LOSS_INPUT         0x08004478   Section        0  blabox.o(i.BLABOX_Rte_Read_B_R_LOSS_INPUT)
    BLABOX_Rte_Read_B_R_LOSS_INPUT           0x08004479   Thumb Code    32  blabox.o(i.BLABOX_Rte_Read_B_R_LOSS_INPUT)
    i.BLABOX_Rte_Read_B_R_OT_FAULT           0x080044a0   Section        0  blabox.o(i.BLABOX_Rte_Read_B_R_OT_FAULT)
    BLABOX_Rte_Read_B_R_OT_FAULT             0x080044a1   Thumb Code    40  blabox.o(i.BLABOX_Rte_Read_B_R_OT_FAULT)
    i.BLABOX_Rte_Read_B_R_PSON_FAULT         0x080044d0   Section        0  blabox.o(i.BLABOX_Rte_Read_B_R_PSON_FAULT)
    BLABOX_Rte_Read_B_R_PSON_FAULT           0x080044d1   Thumb Code    14  blabox.o(i.BLABOX_Rte_Read_B_R_PSON_FAULT)
    i.BLABOX_Rte_Read_B_R_TEMP_WARN          0x080044e4   Section        0  blabox.o(i.BLABOX_Rte_Read_B_R_TEMP_WARN)
    BLABOX_Rte_Read_B_R_TEMP_WARN            0x080044e5   Thumb Code    10  blabox.o(i.BLABOX_Rte_Read_B_R_TEMP_WARN)
    i.BLABOX_SCFG_Read                       0x080044f4   Section        0  blabox.o(i.BLABOX_SCFG_Read)
    BLABOX_SCFG_Read                         0x080044f5   Thumb Code    74  blabox.o(i.BLABOX_SCFG_Read)
    i.BLABOX_SCFG_Write                      0x0800453e   Section        0  blabox.o(i.BLABOX_SCFG_Write)
    BLABOX_SCFG_Write                        0x0800453f   Thumb Code    66  blabox.o(i.BLABOX_SCFG_Write)
    i.BLABOX_SCFG_u16Getlenght               0x08004580   Section        0  blabox.o(i.BLABOX_SCFG_u16Getlenght)
    BLABOX_SCFG_u16Getlenght                 0x08004581   Thumb Code    12  blabox.o(i.BLABOX_SCFG_u16Getlenght)
    i.BLABOX_SCFG_u32GetLastRecordId         0x0800458c   Section        0  blabox.o(i.BLABOX_SCFG_u32GetLastRecordId)
    BLABOX_SCFG_u32GetLastRecordId           0x0800458d   Thumb Code    10  blabox.o(i.BLABOX_SCFG_u32GetLastRecordId)
    i.BLABOX_vClearFault                     0x08004598   Section        0  blabox.o(i.BLABOX_vClearFault)
    i.BLABOX_vClearWarning                   0x080045f4   Section        0  blabox.o(i.BLABOX_vClearWarning)
    i.BLABOX_vCountRealTimeClockDataSystemBlackbox 0x080046d4   Section        0  blabox.o(i.BLABOX_vCountRealTimeClockDataSystemBlackbox)
    i.BLABOX_vInit                           0x080046fc   Section        0  blabox.o(i.BLABOX_vInit)
    i.BLABOX_vMFR_CheckACBlackBox            0x080047a4   Section        0  blabox.o(i.BLABOX_vMFR_CheckACBlackBox)
    i.BLABOX_vMFR_CheckPSONBlackBox          0x080047f0   Section        0  blabox.o(i.BLABOX_vMFR_CheckPSONBlackBox)
    i.BLABOX_vMFR_ClearBlackBox              0x0800483c   Section        0  blabox.o(i.BLABOX_vMFR_ClearBlackBox)
    i.BLABOX_vMFR_SystemBlackBox             0x08004898   Section        0  blabox.o(i.BLABOX_vMFR_SystemBlackBox)
    i.BLABOX_vMFR_TimePSONBlackBox           0x080048e4   Section        0  blabox.o(i.BLABOX_vMFR_TimePSONBlackBox)
    i.BLABOX_vProcessBlackbox                0x08004974   Section        0  blabox.o(i.BLABOX_vProcessBlackbox)
    i.BLABOX_vSetEnableBlackbox              0x0800502c   Section        0  blabox.o(i.BLABOX_vSetEnableBlackbox)
    i.BLABOX_vSetRealTimeClockDataSystemBlackbox 0x0800504c   Section        0  blabox.o(i.BLABOX_vSetRealTimeClockDataSystemBlackbox)
    i.BUFFER_SCB_vInit                       0x08005058   Section        0  buffer.o(i.BUFFER_SCB_vInit)
    i.BUFFER_SCB_vLoop10msTask               0x080050a0   Section        0  buffer.o(i.BUFFER_SCB_vLoop10msTask)
    i.BUFFER_SCB_vLoop1msTask                0x0800511c   Section        0  buffer.o(i.BUFFER_SCB_vLoop1msTask)
    i.BUFFER_SCFG_vReadValue                 0x08005194   Section        0  buffer.o(i.BUFFER_SCFG_vReadValue)
    BUFFER_SCFG_vReadValue                   0x08005195   Thumb Code   134  buffer.o(i.BUFFER_SCFG_vReadValue)
    i.BUFFER_u16GetMean10ms                  0x08005228   Section        0  buffer.o(i.BUFFER_u16GetMean10ms)
    i.BUFFER_u16GetMean1ms                   0x08005248   Section        0  buffer.o(i.BUFFER_u16GetMean1ms)
    i.CALI_Rte_Read_B_R_VIN_OK               0x08005268   Section        0  cali.o(i.CALI_Rte_Read_B_R_VIN_OK)
    CALI_Rte_Read_B_R_VIN_OK                 0x08005269   Thumb Code    10  cali.o(i.CALI_Rte_Read_B_R_VIN_OK)
    i.CALI_Rte_Read_R_u1610mAIoutAvg         0x08005278   Section        0  cali.o(i.CALI_Rte_Read_R_u1610mAIoutAvg)
    CALI_Rte_Read_R_u1610mAIoutAvg           0x08005279   Thumb Code     8  cali.o(i.CALI_Rte_Read_R_u1610mAIoutAvg)
    i.CALI_SCFG_u8GetCrc8                    0x08005284   Section        0  cali.o(i.CALI_SCFG_u8GetCrc8)
    CALI_SCFG_u8GetCrc8                      0x08005285   Thumb Code    16  cali.o(i.CALI_SCFG_u8GetCrc8)
    i.CALI_vCalcCaliPara                     0x08005294   Section        0  cali.o(i.CALI_vCalcCaliPara)
    i.CALI_vCaliFast                         0x08005348   Section        0  cali.o(i.CALI_vCaliFast)
    i.CALI_vCaliHandler                      0x080053d4   Section        0  cali.o(i.CALI_vCaliHandler)
    i.CALI_vCalibrateIShare                  0x08005498   Section        0  cali.o(i.CALI_vCalibrateIShare)
    i.CALI_vCalibrateV1                      0x080054f4   Section        0  cali.o(i.CALI_vCalibrateV1)
    i.CALI_vInit                             0x080054fc   Section        0  cali.o(i.CALI_vInit)
    i.CLOCK_vInit                            0x08005568   Section        0  clock.o(i.CLOCK_vInit)
    i.CRC_u16GetCrc16                        0x08005570   Section        0  crc.o(i.CRC_u16GetCrc16)
    i.CRC_u8GetCrc8                          0x08005590   Section        0  crc.o(i.CRC_u8GetCrc8)
    i.CRC_vInit                              0x080055a4   Section        0  crc.o(i.CRC_vInit)
    i.DMA_Cmd                                0x080055a8   Section        0  stdperiphdriver.o(i.DMA_Cmd)
    i.DMA_DeInit                             0x080055c4   Section        0  stdperiphdriver.o(i.DMA_DeInit)
    i.DMA_Init                               0x08005728   Section        0  stdperiphdriver.o(i.DMA_Init)
    i.EEPROM_u32ReadBuffer                   0x08005768   Section        0  eeprom.o(i.EEPROM_u32ReadBuffer)
    i.EEPROM_u32WaitEepromStandbyState       0x08005a40   Section        0  eeprom.o(i.EEPROM_u32WaitEepromStandbyState)
    i.EEPROM_u32WriteBuffer                  0x08005abc   Section        0  eeprom.o(i.EEPROM_u32WriteBuffer)
    i.EEPROM_u32WritePage                    0x08005d14   Section        0  eeprom.o(i.EEPROM_u32WritePage)
    i.EEPROM_vInit                           0x08005e58   Section        0  eeprom.o(i.EEPROM_vInit)
    i.FANCTRL_RTE_Read_B_R_SYS_UNLOCK        0x08005e64   Section        0  fanctrl.o(i.FANCTRL_RTE_Read_B_R_SYS_UNLOCK)
    FANCTRL_RTE_Read_B_R_SYS_UNLOCK          0x08005e65   Thumb Code    10  fanctrl.o(i.FANCTRL_RTE_Read_B_R_SYS_UNLOCK)
    i.FANCTRL_Rte_Read_R_s32TempDiff         0x08005e74   Section        0  fanctrl.o(i.FANCTRL_Rte_Read_R_s32TempDiff)
    FANCTRL_Rte_Read_R_s32TempDiff           0x08005e75   Thumb Code   426  fanctrl.o(i.FANCTRL_Rte_Read_R_s32TempDiff)
    i.FANCTRL_SCFG_s16ReadAmbTemp            0x0800601e   Section        0  fanctrl.o(i.FANCTRL_SCFG_s16ReadAmbTemp)
    FANCTRL_SCFG_s16ReadAmbTemp              0x0800601f   Thumb Code    10  fanctrl.o(i.FANCTRL_SCFG_s16ReadAmbTemp)
    i.FANCTRL_SCFG_s16ReadOutTemp            0x08006028   Section        0  fanctrl.o(i.FANCTRL_SCFG_s16ReadOutTemp)
    FANCTRL_SCFG_s16ReadOutTemp              0x08006029   Thumb Code    10  fanctrl.o(i.FANCTRL_SCFG_s16ReadOutTemp)
    i.FANCTRL_SCFG_s16ReadPriLlc             0x08006032   Section        0  fanctrl.o(i.FANCTRL_SCFG_s16ReadPriLlc)
    FANCTRL_SCFG_s16ReadPriLlc               0x08006033   Thumb Code    10  fanctrl.o(i.FANCTRL_SCFG_s16ReadPriLlc)
    i.FANCTRL_SCFG_s16ReadPriPfc             0x0800603c   Section        0  fanctrl.o(i.FANCTRL_SCFG_s16ReadPriPfc)
    FANCTRL_SCFG_s16ReadPriPfc               0x0800603d   Thumb Code    10  fanctrl.o(i.FANCTRL_SCFG_s16ReadPriPfc)
    i.FANCTRL_SCFG_s16ReadSecRecdiode        0x08006046   Section        0  fanctrl.o(i.FANCTRL_SCFG_s16ReadSecRecdiode)
    FANCTRL_SCFG_s16ReadSecRecdiode          0x08006047   Thumb Code    10  fanctrl.o(i.FANCTRL_SCFG_s16ReadSecRecdiode)
    i.FANCTRL_u16ReadFanCtrlDuty             0x08006050   Section        0  fanctrl.o(i.FANCTRL_u16ReadFanCtrlDuty)
    i.FANCTRL_u16ReadFanSpeed                0x08006070   Section        0  fanctrl.o(i.FANCTRL_u16ReadFanSpeed)
    i.FANCTRL_u8ReadFanBitFail               0x08006090   Section        0  fanctrl.o(i.FANCTRL_u8ReadFanBitFail)
    i.FANCTRL_u8ReadFanBitWarn               0x080060b0   Section        0  fanctrl.o(i.FANCTRL_u8ReadFanBitWarn)
    i.FANCTRL_u8WriteFanBitFail              0x080060d0   Section        0  fanctrl.o(i.FANCTRL_u8WriteFanBitFail)
    i.FANCTRL_u8WriteFanBitWarn              0x080060fc   Section        0  fanctrl.o(i.FANCTRL_u8WriteFanBitWarn)
    i.FANCTRL_vFanCtrl                       0x08006128   Section        0  fanctrl.o(i.FANCTRL_vFanCtrl)
    i.FANCTRL_vFanSpeedCalc                  0x080061b0   Section        0  fanctrl.o(i.FANCTRL_vFanSpeedCalc)
    i.FANCTRL_vInit                          0x08006320   Section        0  fanctrl.o(i.FANCTRL_vInit)
    i.FANCTRL_vSetFanBlockTest               0x080063c0   Section        0  fanctrl.o(i.FANCTRL_vSetFanBlockTest)
    i.FANCTRL_vSysSetFanCtrlDuty             0x080063cc   Section        0  fanctrl.o(i.FANCTRL_vSysSetFanCtrlDuty)
    i.FLASH_ErasePage                        0x080063e0   Section        0  stdperiphdriver.o(i.FLASH_ErasePage)
    i.FLASH_GetStatus                        0x0800642c   Section        0  stdperiphdriver.o(i.FLASH_GetStatus)
    i.FLASH_Lock                             0x08006468   Section        0  stdperiphdriver.o(i.FLASH_Lock)
    i.FLASH_ProgramHalfWord                  0x0800647c   Section        0  stdperiphdriver.o(i.FLASH_ProgramHalfWord)
    i.FLASH_ProgramWord                      0x080064c0   Section        0  stdperiphdriver.o(i.FLASH_ProgramWord)
    i.FLASH_Unlock                           0x0800652c   Section        0  stdperiphdriver.o(i.FLASH_Unlock)
    i.FLASH_WaitForLastOperation             0x08006550   Section        0  stdperiphdriver.o(i.FLASH_WaitForLastOperation)
    i.FLASH_u32BootloaderFwVer               0x08006578   Section        0  flash.o(i.FLASH_u32BootloaderFwVer)
    i.FLASH_u32ReadWordFlash                 0x08006588   Section        0  flash.o(i.FLASH_u32ReadWordFlash)
    i.FLASH_u8ErasePageFlash                 0x080065a0   Section        0  flash.o(i.FLASH_u8ErasePageFlash)
    i.FLASH_u8WriteHalfWordFlash             0x080065c2   Section        0  flash.o(i.FLASH_u8WriteHalfWordFlash)
    i.FLASH_u8WriteWordFlash                 0x080065ea   Section        0  flash.o(i.FLASH_u8WriteWordFlash)
    i.FLASH_vInit                            0x08006612   Section        0  flash.o(i.FLASH_vInit)
    i.FLASH_vRemapVectorTable                0x08006614   Section        0  flash.o(i.FLASH_vRemapVectorTable)
    i.GPIO_Init                              0x08006654   Section        0  stdperiphdriver.o(i.GPIO_Init)
    i.GPIO_PinAFConfig                       0x080066e4   Section        0  stdperiphdriver.o(i.GPIO_PinAFConfig)
    i.GPIO_ReadInputDataBit                  0x08006728   Section        0  stdperiphdriver.o(i.GPIO_ReadInputDataBit)
    i.HWIO_RTE_Write_B_P_54V_FAULT_ACTIVE    0x0800673c   Section        0  hwio.o(i.HWIO_RTE_Write_B_P_54V_FAULT_ACTIVE)
    HWIO_RTE_Write_B_P_54V_FAULT_ACTIVE      0x0800673d   Thumb Code    22  hwio.o(i.HWIO_RTE_Write_B_P_54V_FAULT_ACTIVE)
    i.HWIO_RTE_Write_B_P_I2C_ADDRESS0        0x08006758   Section        0  hwio.o(i.HWIO_RTE_Write_B_P_I2C_ADDRESS0)
    HWIO_RTE_Write_B_P_I2C_ADDRESS0          0x08006759   Thumb Code    22  hwio.o(i.HWIO_RTE_Write_B_P_I2C_ADDRESS0)
    i.HWIO_RTE_Write_B_P_I2C_ADDRESS1        0x08006774   Section        0  hwio.o(i.HWIO_RTE_Write_B_P_I2C_ADDRESS1)
    HWIO_RTE_Write_B_P_I2C_ADDRESS1          0x08006775   Thumb Code    22  hwio.o(i.HWIO_RTE_Write_B_P_I2C_ADDRESS1)
    i.HWIO_RTE_Write_B_P_PSON_ACTIVE         0x08006790   Section        0  hwio.o(i.HWIO_RTE_Write_B_P_PSON_ACTIVE)
    HWIO_RTE_Write_B_P_PSON_ACTIVE           0x08006791   Thumb Code    22  hwio.o(i.HWIO_RTE_Write_B_P_PSON_ACTIVE)
    i.HWIO_RTE_Write_B_P_VINOK_ENA           0x080067ac   Section        0  hwio.o(i.HWIO_RTE_Write_B_P_VINOK_ENA)
    HWIO_RTE_Write_B_P_VINOK_ENA             0x080067ad   Thumb Code    26  hwio.o(i.HWIO_RTE_Write_B_P_VINOK_ENA)
    i.HWIO_RTE_Write_B_P_VIN_OK_ACTIVE       0x080067cc   Section        0  hwio.o(i.HWIO_RTE_Write_B_P_VIN_OK_ACTIVE)
    HWIO_RTE_Write_B_P_VIN_OK_ACTIVE         0x080067cd   Thumb Code    22  hwio.o(i.HWIO_RTE_Write_B_P_VIN_OK_ACTIVE)
    i.HWIO_Rte_Read_B_R_COM_VIN_OK           0x080067e8   Section        0  hwio.o(i.HWIO_Rte_Read_B_R_COM_VIN_OK)
    HWIO_Rte_Read_B_R_COM_VIN_OK             0x080067e9   Thumb Code    10  hwio.o(i.HWIO_Rte_Read_B_R_COM_VIN_OK)
    i.HWIO_Rte_Read_B_R_OUTPUT_OK            0x080067f8   Section        0  hwio.o(i.HWIO_Rte_Read_B_R_OUTPUT_OK)
    HWIO_Rte_Read_B_R_OUTPUT_OK              0x080067f9   Thumb Code    10  hwio.o(i.HWIO_Rte_Read_B_R_OUTPUT_OK)
    i.HWIO_Rte_Read_B_R_SMBALLERT_ST         0x08006808   Section        0  hwio.o(i.HWIO_Rte_Read_B_R_SMBALLERT_ST)
    HWIO_Rte_Read_B_R_SMBALLERT_ST           0x08006809   Thumb Code    10  hwio.o(i.HWIO_Rte_Read_B_R_SMBALLERT_ST)
    i.HWIO_Rte_Read_B_R_V1_ON                0x08006818   Section        0  hwio.o(i.HWIO_Rte_Read_B_R_V1_ON)
    HWIO_Rte_Read_B_R_V1_ON                  0x08006819   Thumb Code    10  hwio.o(i.HWIO_Rte_Read_B_R_V1_ON)
    i.HWIO_Rte_Read_B_R_VIN_LINE_LOW         0x08006828   Section        0  hwio.o(i.HWIO_Rte_Read_B_R_VIN_LINE_LOW)
    HWIO_Rte_Read_B_R_VIN_LINE_LOW           0x08006829   Thumb Code    10  hwio.o(i.HWIO_Rte_Read_B_R_VIN_LINE_LOW)
    i.HWIO_Rte_Read_B_R_VIN_OK               0x08006838   Section        0  hwio.o(i.HWIO_Rte_Read_B_R_VIN_OK)
    HWIO_Rte_Read_B_R_VIN_OK                 0x08006839   Thumb Code    10  hwio.o(i.HWIO_Rte_Read_B_R_VIN_OK)
    i.HWIO_vCheckBootLoaderExistFlg          0x08006848   Section        0  hwio.o(i.HWIO_vCheckBootLoaderExistFlg)
    i.HWIO_vInit                             0x0800684a   Section        0  hwio.o(i.HWIO_vInit)
    i.HWIO_vReadGpioPort                     0x0800684c   Section        0  hwio.o(i.HWIO_vReadGpioPort)
    i.HWIO_vSetGpioPort                      0x08006a68   Section        0  hwio.o(i.HWIO_vSetGpioPort)
    i.I2C1_IRQHandler                        0x08006bc8   Section        0  i2cprt.o(i.I2C1_IRQHandler)
    i.I2CPRT_RTE_Read_B_R_PEC_ERR_FLG        0x08006e78   Section        0  i2cprt.o(i.I2CPRT_RTE_Read_B_R_PEC_ERR_FLG)
    I2CPRT_RTE_Read_B_R_PEC_ERR_FLG          0x08006e79   Thumb Code    10  i2cprt.o(i.I2CPRT_RTE_Read_B_R_PEC_ERR_FLG)
    i.I2CPRT_RTE_Write_B_P_CMD_WAIT_FLG      0x08006e88   Section        0  i2cprt.o(i.I2CPRT_RTE_Write_B_P_CMD_WAIT_FLG)
    I2CPRT_RTE_Write_B_P_CMD_WAIT_FLG        0x08006e89   Thumb Code    26  i2cprt.o(i.I2CPRT_RTE_Write_B_P_CMD_WAIT_FLG)
    i.I2CPRT_RTE_Write_B_P_PEC_CHANGE_FLG    0x08006ea8   Section        0  i2cprt.o(i.I2CPRT_RTE_Write_B_P_PEC_CHANGE_FLG)
    I2CPRT_RTE_Write_B_P_PEC_CHANGE_FLG      0x08006ea9   Thumb Code    26  i2cprt.o(i.I2CPRT_RTE_Write_B_P_PEC_CHANGE_FLG)
    i.I2CPRT_RTE_Write_B_P_PEC_ERR_FLG       0x08006ec8   Section        0  i2cprt.o(i.I2CPRT_RTE_Write_B_P_PEC_ERR_FLG)
    I2CPRT_RTE_Write_B_P_PEC_ERR_FLG         0x08006ec9   Thumb Code    26  i2cprt.o(i.I2CPRT_RTE_Write_B_P_PEC_ERR_FLG)
    i.I2CPRT_Rte_Read_R_u8I2cPEC             0x08006ee8   Section        0  i2cprt.o(i.I2CPRT_Rte_Read_R_u8I2cPEC)
    I2CPRT_Rte_Read_R_u8I2cPEC               0x08006ee9   Thumb Code     8  i2cprt.o(i.I2CPRT_Rte_Read_R_u8I2cPEC)
    i.I2CPRT_Rte_Read_R_u8I2cRxCnt           0x08006ef4   Section        0  i2cprt.o(i.I2CPRT_Rte_Read_R_u8I2cRxCnt)
    I2CPRT_Rte_Read_R_u8I2cRxCnt             0x08006ef5   Thumb Code     8  i2cprt.o(i.I2CPRT_Rte_Read_R_u8I2cRxCnt)
    i.I2CPRT_Rte_Write_P_u8I2cExpRxCnt       0x08006f00   Section        0  i2cprt.o(i.I2CPRT_Rte_Write_P_u8I2cExpRxCnt)
    I2CPRT_Rte_Write_P_u8I2cExpRxCnt         0x08006f01   Thumb Code     6  i2cprt.o(i.I2CPRT_Rte_Write_P_u8I2cExpRxCnt)
    i.I2CPRT_Rte_Write_P_u8I2cExpTxCnt       0x08006f0c   Section        0  i2cprt.o(i.I2CPRT_Rte_Write_P_u8I2cExpTxCnt)
    I2CPRT_Rte_Write_P_u8I2cExpTxCnt         0x08006f0d   Thumb Code     6  i2cprt.o(i.I2CPRT_Rte_Write_P_u8I2cExpTxCnt)
    i.I2CPRT_Rte_Write_P_u8I2cPEC            0x08006f18   Section        0  i2cprt.o(i.I2CPRT_Rte_Write_P_u8I2cPEC)
    I2CPRT_Rte_Write_P_u8I2cPEC              0x08006f19   Thumb Code     6  i2cprt.o(i.I2CPRT_Rte_Write_P_u8I2cPEC)
    i.I2CPRT_Rte_Write_P_u8I2cRxCnt          0x08006f24   Section        0  i2cprt.o(i.I2CPRT_Rte_Write_P_u8I2cRxCnt)
    I2CPRT_Rte_Write_P_u8I2cRxCnt            0x08006f25   Thumb Code     6  i2cprt.o(i.I2CPRT_Rte_Write_P_u8I2cRxCnt)
    i.I2CPRT_Rte_Write_P_u8I2cTxLen          0x08006f30   Section        0  i2cprt.o(i.I2CPRT_Rte_Write_P_u8I2cTxLen)
    I2CPRT_Rte_Write_P_u8I2cTxLen            0x08006f31   Thumb Code     6  i2cprt.o(i.I2CPRT_Rte_Write_P_u8I2cTxLen)
    i.I2CPRT_Rte_Write_P_u8PecErrCmd         0x08006f3c   Section        0  i2cprt.o(i.I2CPRT_Rte_Write_P_u8PecErrCmd)
    I2CPRT_Rte_Write_P_u8PecErrCmd           0x08006f3d   Thumb Code     6  i2cprt.o(i.I2CPRT_Rte_Write_P_u8PecErrCmd)
    i.I2CPRT_Rte_Write_P_u8TxBuf             0x08006f48   Section        0  i2cprt.o(i.I2CPRT_Rte_Write_P_u8TxBuf)
    I2CPRT_Rte_Write_P_u8TxBuf               0x08006f49   Thumb Code     6  i2cprt.o(i.I2CPRT_Rte_Write_P_u8TxBuf)
    i.I2CPRT_SCFG_eGetRxSTOPFlg              0x08006f54   Section        0  i2cprt.o(i.I2CPRT_SCFG_eGetRxSTOPFlg)
    I2CPRT_SCFG_eGetRxSTOPFlg                0x08006f55   Thumb Code    12  i2cprt.o(i.I2CPRT_SCFG_eGetRxSTOPFlg)
    i.I2CPRT_SCFG_u8GetCrc8                  0x08006f64   Section        0  i2cprt.o(i.I2CPRT_SCFG_u8GetCrc8)
    I2CPRT_SCFG_u8GetCrc8                    0x08006f65   Thumb Code    16  i2cprt.o(i.I2CPRT_SCFG_u8GetCrc8)
    i.I2CPRT_vInit                           0x08006f74   Section        0  i2cprt.o(i.I2CPRT_vInit)
    i.I2CPRT_vProcessReceiveData             0x08006fe8   Section        0  i2cprt.o(i.I2CPRT_vProcessReceiveData)
    i.I2C_ClearFlag                          0x0800710c   Section        0  stdperiphdriver.o(i.I2C_ClearFlag)
    i.I2C_ClearITPendingBit                  0x08007110   Section        0  stdperiphdriver.o(i.I2C_ClearITPendingBit)
    i.I2C_Cmd                                0x08007114   Section        0  stdperiphdriver.o(i.I2C_Cmd)
    i.I2C_GenerateSTART                      0x0800712c   Section        0  stdperiphdriver.o(i.I2C_GenerateSTART)
    i.I2C_GetFlagStatus                      0x08007148   Section        0  stdperiphdriver.o(i.I2C_GetFlagStatus)
    i.I2C_GetTransferDirection               0x08007164   Section        0  stdperiphdriver.o(i.I2C_GetTransferDirection)
    i.I2C_ITConfig                           0x08007182   Section        0  stdperiphdriver.o(i.I2C_ITConfig)
    i.I2C_Init                               0x08007198   Section        0  stdperiphdriver.o(i.I2C_Init)
    i.I2C_ReceiveData                        0x08007204   Section        0  stdperiphdriver.o(i.I2C_ReceiveData)
    i.I2C_SendData                           0x0800720c   Section        0  stdperiphdriver.o(i.I2C_SendData)
    i.I2C_SoftwareResetCmd                   0x08007210   Section        0  stdperiphdriver.o(i.I2C_SoftwareResetCmd)
    i.I2C_StretchClockCmd                    0x08007224   Section        0  stdperiphdriver.o(i.I2C_StretchClockCmd)
    i.I2C_TransferHandling                   0x08007240   Section        0  stdperiphdriver.o(i.I2C_TransferHandling)
    i.I2C_vClearTimeoutCnt                   0x0800726c   Section        0  i2c.o(i.I2C_vClearTimeoutCnt)
    i.I2C_vDisableNvicInt                    0x08007284   Section        0  i2c.o(i.I2C_vDisableNvicInt)
    i.I2C_vEnableNvicInt                     0x080072b8   Section        0  i2c.o(i.I2C_vEnableNvicInt)
    i.I2C_vI2cTimeOutHandler                 0x080072ec   Section        0  i2c.o(i.I2C_vI2cTimeOutHandler)
    i.I2C_vInit                              0x08007404   Section        0  i2c.o(i.I2C_vInit)
    i.INTCOM_RTE_Read_B_R_VIN_OK_ACTIVE      0x08007470   Section        0  intcom.o(i.INTCOM_RTE_Read_B_R_VIN_OK_ACTIVE)
    INTCOM_RTE_Read_B_R_VIN_OK_ACTIVE        0x08007471   Thumb Code    10  intcom.o(i.INTCOM_RTE_Read_B_R_VIN_OK_ACTIVE)
    i.INTCOM_RTE_Read_B_R_VIN_OK_PRI         0x08007480   Section        0  monctrl.o(i.INTCOM_RTE_Read_B_R_VIN_OK_PRI)
    INTCOM_RTE_Read_B_R_VIN_OK_PRI           0x08007481   Thumb Code    10  monctrl.o(i.INTCOM_RTE_Read_B_R_VIN_OK_PRI)
    i.INTCOM_RTE_Write_B_P_COMMS_FAULT       0x08007490   Section        0  intcom.o(i.INTCOM_RTE_Write_B_P_COMMS_FAULT)
    INTCOM_RTE_Write_B_P_COMMS_FAULT         0x08007491   Thumb Code    22  intcom.o(i.INTCOM_RTE_Write_B_P_COMMS_FAULT)
    i.INTCOM_RTE_Write_B_P_PRI_NO_RX_PKG     0x080074ac   Section        0  intcom.o(i.INTCOM_RTE_Write_B_P_PRI_NO_RX_PKG)
    INTCOM_RTE_Write_B_P_PRI_NO_RX_PKG       0x080074ad   Thumb Code    22  intcom.o(i.INTCOM_RTE_Write_B_P_PRI_NO_RX_PKG)
    i.INTCOM_RTE_Write_B_P_PRI_RX_PKG        0x080074c8   Section        0  intcom.o(i.INTCOM_RTE_Write_B_P_PRI_RX_PKG)
    INTCOM_RTE_Write_B_P_PRI_RX_PKG          0x080074c9   Thumb Code    26  intcom.o(i.INTCOM_RTE_Write_B_P_PRI_RX_PKG)
    i.INTCOM_RTE_Write_B_P_PRI_UART_FAIL     0x080074e8   Section        0  intcom.o(i.INTCOM_RTE_Write_B_P_PRI_UART_FAIL)
    INTCOM_RTE_Write_B_P_PRI_UART_FAIL       0x080074e9   Thumb Code    20  intcom.o(i.INTCOM_RTE_Write_B_P_PRI_UART_FAIL)
    i.INTCOM_RTE_Write_B_P_SEC_NO_RX_PKG     0x08007500   Section        0  intcom.o(i.INTCOM_RTE_Write_B_P_SEC_NO_RX_PKG)
    INTCOM_RTE_Write_B_P_SEC_NO_RX_PKG       0x08007501   Thumb Code    22  intcom.o(i.INTCOM_RTE_Write_B_P_SEC_NO_RX_PKG)
    i.INTCOM_RTE_Write_B_P_SEC_UART_FAIL     0x0800751c   Section        0  intcom.o(i.INTCOM_RTE_Write_B_P_SEC_UART_FAIL)
    INTCOM_RTE_Write_B_P_SEC_UART_FAIL       0x0800751d   Thumb Code    20  intcom.o(i.INTCOM_RTE_Write_B_P_SEC_UART_FAIL)
    i.INTCOM_Rte_Write_B_P_V1_OCP            0x08007534   Section        0  intcom.o(i.INTCOM_Rte_Write_B_P_V1_OCP)
    INTCOM_Rte_Write_B_P_V1_OCP              0x08007535   Thumb Code    22  intcom.o(i.INTCOM_Rte_Write_B_P_V1_OCP)
    i.INTCOM_Rte_Write_P_u16FanCnt           0x08007550   Section        0  intcom.o(i.INTCOM_Rte_Write_P_u16FanCnt)
    INTCOM_Rte_Write_P_u16FanCnt             0x08007551   Thumb Code     8  intcom.o(i.INTCOM_Rte_Write_P_u16FanCnt)
    i.INTCOM_vCom1RxData                     0x0800755c   Section        0  intcom.o(i.INTCOM_vCom1RxData)
    i.INTCOM_vCom1TxData                     0x08007930   Section        0  intcom.o(i.INTCOM_vCom1TxData)
    i.INTCOM_vCom2RxData                     0x08007a34   Section        0  intcom.o(i.INTCOM_vCom2RxData)
    i.INTCOM_vCom2TxData                     0x08007da0   Section        0  intcom.o(i.INTCOM_vCom2TxData)
    i.INTCOM_vInit                           0x08007f4c   Section        0  intcom.o(i.INTCOM_vInit)
    i.INTCOM_vTmOutMon                       0x08007f64   Section        0  intcom.o(i.INTCOM_vTmOutMon)
    i.LEDCTRL_RTE_Read_B_R_Aux_Mode          0x08007fd4   Section        0  ledctrl.o(i.LEDCTRL_RTE_Read_B_R_Aux_Mode)
    LEDCTRL_RTE_Read_B_R_Aux_Mode            0x08007fd5   Thumb Code    10  ledctrl.o(i.LEDCTRL_RTE_Read_B_R_Aux_Mode)
    i.LEDCTRL_RTE_Read_B_R_V1_OCP            0x08007fe4   Section        0  ledctrl.o(i.LEDCTRL_RTE_Read_B_R_V1_OCP)
    LEDCTRL_RTE_Read_B_R_V1_OCP              0x08007fe5   Thumb Code    10  ledctrl.o(i.LEDCTRL_RTE_Read_B_R_V1_OCP)
    i.LEDCTRL_RTE_Read_B_R_V1_OVP            0x08007ff4   Section        0  ledctrl.o(i.LEDCTRL_RTE_Read_B_R_V1_OVP)
    LEDCTRL_RTE_Read_B_R_V1_OVP              0x08007ff5   Thumb Code    10  ledctrl.o(i.LEDCTRL_RTE_Read_B_R_V1_OVP)
    i.LEDCTRL_RTE_Read_B_R_V1_UVP            0x08008004   Section        0  ledctrl.o(i.LEDCTRL_RTE_Read_B_R_V1_UVP)
    LEDCTRL_RTE_Read_B_R_V1_UVP              0x08008005   Thumb Code    10  ledctrl.o(i.LEDCTRL_RTE_Read_B_R_V1_UVP)
    i.LEDCTRL_RTE_Read_B_R_VIN_OK            0x08008014   Section        0  ledctrl.o(i.LEDCTRL_RTE_Read_B_R_VIN_OK)
    LEDCTRL_RTE_Read_B_R_VIN_OK              0x08008015   Thumb Code    10  ledctrl.o(i.LEDCTRL_RTE_Read_B_R_VIN_OK)
    i.LEDCTRL_SCFG_vSetInREDOff              0x08008024   Section        0  ledctrl.o(i.LEDCTRL_SCFG_vSetInREDOff)
    LEDCTRL_SCFG_vSetInREDOff                0x08008025   Thumb Code    12  ledctrl.o(i.LEDCTRL_SCFG_vSetInREDOff)
    i.LEDCTRL_SCFG_vSetInREDOn               0x08008030   Section        0  ledctrl.o(i.LEDCTRL_SCFG_vSetInREDOn)
    LEDCTRL_SCFG_vSetInREDOn                 0x08008031   Thumb Code    12  ledctrl.o(i.LEDCTRL_SCFG_vSetInREDOn)
    i.LEDCTRL_vInit                          0x0800803c   Section        0  ledctrl.o(i.LEDCTRL_vInit)
    i.LEDCTRL_vLedControl                    0x08008040   Section        0  ledctrl.o(i.LEDCTRL_vLedControl)
    i.MEM_SCFG_u8GetCrc8                     0x080081c8   Section        0  mem.o(i.MEM_SCFG_u8GetCrc8)
    MEM_SCFG_u8GetCrc8                       0x080081c9   Thumb Code    16  mem.o(i.MEM_SCFG_u8GetCrc8)
    i.MEM_SCFG_vReadMem                      0x080081d8   Section        0  mem.o(i.MEM_SCFG_vReadMem)
    MEM_SCFG_vReadMem                        0x080081d9   Thumb Code    20  mem.o(i.MEM_SCFG_vReadMem)
    i.MEM_SCFG_vWriteMem                     0x080081ec   Section        0  mem.o(i.MEM_SCFG_vWriteMem)
    MEM_SCFG_vWriteMem                       0x080081ed   Thumb Code    20  mem.o(i.MEM_SCFG_vWriteMem)
    i.MEM_u16Getlenght                       0x08008200   Section        0  mem.o(i.MEM_u16Getlenght)
    i.MEM_vInit                              0x08008210   Section        0  mem.o(i.MEM_vInit)
    i.MEM_vRead2EEPORM                       0x08008224   Section        0  mem.o(i.MEM_vRead2EEPORM)
    i.MEM_vReadFromMem                       0x08008250   Section        0  mem.o(i.MEM_vReadFromMem)
    i.MEM_vSaveData                          0x08008274   Section        0  mem.o(i.MEM_vSaveData)
    i.MEM_vWrite2EEPORM                      0x080082cc   Section        0  mem.o(i.MEM_vWrite2EEPORM)
    i.MEM_vWriteToMem                        0x080082f8   Section        0  mem.o(i.MEM_vWriteToMem)
    i.MONCTRL_RTE_Read_B_R_NO_VIN            0x08008318   Section        0  monctrl.o(i.MONCTRL_RTE_Read_B_R_NO_VIN)
    MONCTRL_RTE_Read_B_R_NO_VIN              0x08008319   Thumb Code    10  monctrl.o(i.MONCTRL_RTE_Read_B_R_NO_VIN)
    i.MONCTRL_RTE_Read_B_R_REMOTE_ON         0x08008328   Section        0  monctrl.o(i.MONCTRL_RTE_Read_B_R_REMOTE_ON)
    MONCTRL_RTE_Read_B_R_REMOTE_ON           0x08008329   Thumb Code    10  monctrl.o(i.MONCTRL_RTE_Read_B_R_REMOTE_ON)
    i.MONCTRL_RTE_Read_B_R_VIN_OV            0x08008338   Section        0  monctrl.o(i.MONCTRL_RTE_Read_B_R_VIN_OV)
    MONCTRL_RTE_Read_B_R_VIN_OV              0x08008339   Thumb Code    10  monctrl.o(i.MONCTRL_RTE_Read_B_R_VIN_OV)
    i.MONCTRL_RTE_Read_B_R_VIN_UV            0x08008348   Section        0  monctrl.o(i.MONCTRL_RTE_Read_B_R_VIN_UV)
    MONCTRL_RTE_Read_B_R_VIN_UV              0x08008349   Thumb Code    10  monctrl.o(i.MONCTRL_RTE_Read_B_R_VIN_UV)
    i.MONCTRL_RTE_Read_B_R_VSB_MONI_EN       0x08008358   Section        0  monctrl.o(i.MONCTRL_RTE_Read_B_R_VSB_MONI_EN)
    MONCTRL_RTE_Read_B_R_VSB_MONI_EN         0x08008359   Thumb Code    10  monctrl.o(i.MONCTRL_RTE_Read_B_R_VSB_MONI_EN)
    i.MONCTRL_RTE_Read_B_R_VSB_ON_DIO        0x08008368   Section        0  monctrl.o(i.MONCTRL_RTE_Read_B_R_VSB_ON_DIO)
    MONCTRL_RTE_Read_B_R_VSB_ON_DIO          0x08008369   Thumb Code    10  monctrl.o(i.MONCTRL_RTE_Read_B_R_VSB_ON_DIO)
    i.MONCTRL_RTE_Read_R_vVsbLinear          0x08008378   Section        0  monctrl.o(i.MONCTRL_RTE_Read_R_vVsbLinear)
    MONCTRL_RTE_Read_R_vVsbLinear            0x08008379   Thumb Code     8  monctrl.o(i.MONCTRL_RTE_Read_R_vVsbLinear)
    i.MONCTRL_RTE_Write_B_P_ANY_NTC_FAULT    0x08008384   Section        0  monctrl.o(i.MONCTRL_RTE_Write_B_P_ANY_NTC_FAULT)
    MONCTRL_RTE_Write_B_P_ANY_NTC_FAULT      0x08008385   Thumb Code    26  monctrl.o(i.MONCTRL_RTE_Write_B_P_ANY_NTC_FAULT)
    i.MONCTRL_RTE_Write_B_P_CLEAR_LATCH_FAULT 0x080083a4   Section        0  monctrl.o(i.MONCTRL_RTE_Write_B_P_CLEAR_LATCH_FAULT)
    MONCTRL_RTE_Write_B_P_CLEAR_LATCH_FAULT  0x080083a5   Thumb Code    22  monctrl.o(i.MONCTRL_RTE_Write_B_P_CLEAR_LATCH_FAULT)
    i.MONCTRL_RTE_Write_B_P_NO_VIN           0x080083c0   Section        0  monctrl.o(i.MONCTRL_RTE_Write_B_P_NO_VIN)
    MONCTRL_RTE_Write_B_P_NO_VIN             0x080083c1   Thumb Code    22  monctrl.o(i.MONCTRL_RTE_Write_B_P_NO_VIN)
    i.MONCTRL_RTE_Write_B_P_REMOTE_ON        0x080083dc   Section        0  monctrl.o(i.MONCTRL_RTE_Write_B_P_REMOTE_ON)
    MONCTRL_RTE_Write_B_P_REMOTE_ON          0x080083dd   Thumb Code    22  monctrl.o(i.MONCTRL_RTE_Write_B_P_REMOTE_ON)
    i.MONCTRL_RTE_Write_B_P_VIN_OCW          0x080083f8   Section        0  monctrl.o(i.MONCTRL_RTE_Write_B_P_VIN_OCW)
    MONCTRL_RTE_Write_B_P_VIN_OCW            0x080083f9   Thumb Code    26  monctrl.o(i.MONCTRL_RTE_Write_B_P_VIN_OCW)
    i.MONCTRL_RTE_Write_B_P_VIN_OK           0x08008418   Section        0  monctrl.o(i.MONCTRL_RTE_Write_B_P_VIN_OK)
    MONCTRL_RTE_Write_B_P_VIN_OK             0x08008419   Thumb Code    22  monctrl.o(i.MONCTRL_RTE_Write_B_P_VIN_OK)
    i.MONCTRL_RTE_Write_B_P_VIN_OV           0x08008434   Section        0  monctrl.o(i.MONCTRL_RTE_Write_B_P_VIN_OV)
    MONCTRL_RTE_Write_B_P_VIN_OV             0x08008435   Thumb Code    26  monctrl.o(i.MONCTRL_RTE_Write_B_P_VIN_OV)
    i.MONCTRL_RTE_Write_B_P_VIN_UV           0x08008454   Section        0  monctrl.o(i.MONCTRL_RTE_Write_B_P_VIN_UV)
    MONCTRL_RTE_Write_B_P_VIN_UV             0x08008455   Thumb Code    26  monctrl.o(i.MONCTRL_RTE_Write_B_P_VIN_UV)
    i.MONCTRL_RTE_Write_B_P_VIN_UVW          0x08008474   Section        0  monctrl.o(i.MONCTRL_RTE_Write_B_P_VIN_UVW)
    MONCTRL_RTE_Write_B_P_VIN_UVW            0x08008475   Thumb Code    26  monctrl.o(i.MONCTRL_RTE_Write_B_P_VIN_UVW)
    i.MONCTRL_RTE_Write_B_P_VSB_LATCH        0x08008494   Section        0  monctrl.o(i.MONCTRL_RTE_Write_B_P_VSB_LATCH)
    MONCTRL_RTE_Write_B_P_VSB_LATCH          0x08008495   Thumb Code    20  monctrl.o(i.MONCTRL_RTE_Write_B_P_VSB_LATCH)
    i.MONCTRL_RTE_Write_B_P_VSB_OCP          0x080084ac   Section        0  monctrl.o(i.MONCTRL_RTE_Write_B_P_VSB_OCP)
    MONCTRL_RTE_Write_B_P_VSB_OCP            0x080084ad   Thumb Code    22  monctrl.o(i.MONCTRL_RTE_Write_B_P_VSB_OCP)
    i.MONCTRL_RTE_Write_B_P_VSB_OCW          0x080084c8   Section        0  monctrl.o(i.MONCTRL_RTE_Write_B_P_VSB_OCW)
    MONCTRL_RTE_Write_B_P_VSB_OCW            0x080084c9   Thumb Code    22  monctrl.o(i.MONCTRL_RTE_Write_B_P_VSB_OCW)
    i.MONCTRL_RTE_Write_B_P_VSB_OVP          0x080084e4   Section        0  monctrl.o(i.MONCTRL_RTE_Write_B_P_VSB_OVP)
    MONCTRL_RTE_Write_B_P_VSB_OVP            0x080084e5   Thumb Code    22  monctrl.o(i.MONCTRL_RTE_Write_B_P_VSB_OVP)
    i.MONCTRL_RTE_Write_B_P_VSB_OVW          0x08008500   Section        0  monctrl.o(i.MONCTRL_RTE_Write_B_P_VSB_OVW)
    MONCTRL_RTE_Write_B_P_VSB_OVW            0x08008501   Thumb Code    22  monctrl.o(i.MONCTRL_RTE_Write_B_P_VSB_OVW)
    i.MONCTRL_RTE_Write_B_P_VSB_UVP          0x0800851c   Section        0  monctrl.o(i.MONCTRL_RTE_Write_B_P_VSB_UVP)
    MONCTRL_RTE_Write_B_P_VSB_UVP            0x0800851d   Thumb Code    22  monctrl.o(i.MONCTRL_RTE_Write_B_P_VSB_UVP)
    i.MONCTRL_RTE_Write_B_P_VSB_UVW          0x08008538   Section        0  monctrl.o(i.MONCTRL_RTE_Write_B_P_VSB_UVW)
    MONCTRL_RTE_Write_B_P_VSB_UVW            0x08008539   Thumb Code    22  monctrl.o(i.MONCTRL_RTE_Write_B_P_VSB_UVW)
    i.MONCTRL_RTE_Write_P_u8AcLineStatus     0x08008554   Section        0  monctrl.o(i.MONCTRL_RTE_Write_P_u8AcLineStatus)
    MONCTRL_RTE_Write_P_u8AcLineStatus       0x08008555   Thumb Code     6  monctrl.o(i.MONCTRL_RTE_Write_P_u8AcLineStatus)
    i.MONCTRL_Rte_Write_B_P_AC_OFFSET_SAVEED 0x08008560   Section        0  mem.o(i.MONCTRL_Rte_Write_B_P_AC_OFFSET_SAVEED)
    MONCTRL_Rte_Write_B_P_AC_OFFSET_SAVEED   0x08008561   Thumb Code    26  mem.o(i.MONCTRL_Rte_Write_B_P_AC_OFFSET_SAVEED)
    i.MONCTRL_Rte_Write_B_P_STB_MODE         0x08008580   Section        0  monctrl.o(i.MONCTRL_Rte_Write_B_P_STB_MODE)
    MONCTRL_Rte_Write_B_P_STB_MODE           0x08008581   Thumb Code    26  monctrl.o(i.MONCTRL_Rte_Write_B_P_STB_MODE)
    i.MONCTRL_Rte_Write_P_u16TrimV1Gain      0x080085a0   Section        0  mem.o(i.MONCTRL_Rte_Write_P_u16TrimV1Gain)
    MONCTRL_Rte_Write_P_u16TrimV1Gain        0x080085a1   Thumb Code     6  mem.o(i.MONCTRL_Rte_Write_P_u16TrimV1Gain)
    i.MONCTRL_Rte_Write_P_u16TrimV1GainAct   0x080085ac   Section        0  mem.o(i.MONCTRL_Rte_Write_P_u16TrimV1GainAct)
    MONCTRL_Rte_Write_P_u16TrimV1GainAct     0x080085ad   Thumb Code     6  mem.o(i.MONCTRL_Rte_Write_P_u16TrimV1GainAct)
    i.MONCTRL_Rte_Write_P_u16TrimVsbGain     0x080085b8   Section        0  mem.o(i.MONCTRL_Rte_Write_P_u16TrimVsbGain)
    MONCTRL_Rte_Write_P_u16TrimVsbGain       0x080085b9   Thumb Code     6  mem.o(i.MONCTRL_Rte_Write_P_u16TrimVsbGain)
    i.MONCTRL_vAxuModeDetect                 0x080085c4   Section        0  monctrl.o(i.MONCTRL_vAxuModeDetect)
    i.MONCTRL_vCheckStatusReset              0x08008654   Section        0  monctrl.o(i.MONCTRL_vCheckStatusReset)
    i.MONCTRL_vCheckVsbOvp                   0x080087ec   Section        0  monctrl.o(i.MONCTRL_vCheckVsbOvp)
    i.MONCTRL_vInit                          0x08008854   Section        0  monctrl.o(i.MONCTRL_vInit)
    i.MONCTRL_vUpdateStatus                  0x08008874   Section        0  monctrl.o(i.MONCTRL_vUpdateStatus)
    i.MONCTRL_vVin                           0x080089b4   Section        0  monctrl.o(i.MONCTRL_vVin)
    i.MONCTRL_vVsbOutput                     0x08008d28   Section        0  monctrl.o(i.MONCTRL_vVsbOutput)
    i.NVIC_Init                              0x08009018   Section        0  stdperiphdriver.o(i.NVIC_Init)
    i.PMBUS_Rte_Read_B_R_V1_OCP              0x08009088   Section        0  pmbus.o(i.PMBUS_Rte_Read_B_R_V1_OCP)
    PMBUS_Rte_Read_B_R_V1_OCP                0x08009089   Thumb Code    10  pmbus.o(i.PMBUS_Rte_Read_B_R_V1_OCP)
    i.PMBUS_Rte_Read_R_u8PMBusCmd            0x08009098   Section        0  pmbus.o(i.PMBUS_Rte_Read_R_u8PMBusCmd)
    PMBUS_Rte_Read_R_u8PMBusCmd              0x08009099   Thumb Code     8  pmbus.o(i.PMBUS_Rte_Read_R_u8PMBusCmd)
    i.PMBUS_Rte_Write_P_u8TempTestIndex      0x080090a4   Section        0  pmbus.o(i.PMBUS_Rte_Write_P_u8TempTestIndex)
    PMBUS_Rte_Write_P_u8TempTestIndex        0x080090a5   Thumb Code     6  pmbus.o(i.PMBUS_Rte_Write_P_u8TempTestIndex)
    i.PMBUS_SCFG_u16ReadFanSpeed             0x080090b0   Section        0  pmbus.o(i.PMBUS_SCFG_u16ReadFanSpeed)
    PMBUS_SCFG_u16ReadFanSpeed               0x080090b1   Thumb Code    12  pmbus.o(i.PMBUS_SCFG_u16ReadFanSpeed)
    i.PMBUS_SCFG_u8ReadFanBitFail            0x080090bc   Section        0  pmbus.o(i.PMBUS_SCFG_u8ReadFanBitFail)
    PMBUS_SCFG_u8ReadFanBitFail              0x080090bd   Thumb Code    12  pmbus.o(i.PMBUS_SCFG_u8ReadFanBitFail)
    i.PMBUS_SCFG_u8ReadFanBitWarn            0x080090c8   Section        0  pmbus.o(i.PMBUS_SCFG_u8ReadFanBitWarn)
    PMBUS_SCFG_u8ReadFanBitWarn              0x080090c9   Thumb Code    12  pmbus.o(i.PMBUS_SCFG_u8ReadFanBitWarn)
    i.PMBUS_SCFG_vSetBootMode                0x080090d4   Section        0  pmbus.o(i.PMBUS_SCFG_vSetBootMode)
    PMBUS_SCFG_vSetBootMode                  0x080090d5   Thumb Code    12  pmbus.o(i.PMBUS_SCFG_vSetBootMode)
    i.PMBUS_SCFG_vSetFanBlockTest            0x080090e0   Section        0  pmbus.o(i.PMBUS_SCFG_vSetFanBlockTest)
    PMBUS_SCFG_vSetFanBlockTest              0x080090e1   Thumb Code    12  pmbus.o(i.PMBUS_SCFG_vSetFanBlockTest)
    i.PMBUS_SCFG_vSysSetFanCtrlDuty          0x080090ec   Section        0  pmbus.o(i.PMBUS_SCFG_vSysSetFanCtrlDuty)
    PMBUS_SCFG_vSysSetFanCtrlDuty            0x080090ed   Thumb Code    16  pmbus.o(i.PMBUS_SCFG_vSysSetFanCtrlDuty)
    i.PMBUS_vCheckBootMode                   0x080090fc   Section        0  pmbus.o(i.PMBUS_vCheckBootMode)
    i.PMBUS_vClearAllFault                   0x0800926c   Section        0  pmbus.o(i.PMBUS_vClearAllFault)
    i.PMBUS_vClearPowerOffFault              0x08009280   Section        0  pmbus.o(i.PMBUS_vClearPowerOffFault)
    i.PMBUS_vCmdCheck                        0x080092bc   Section        0  pmbus.o(i.PMBUS_vCmdCheck)
    i.PMBUS_vCopyDebugData                   0x0800960c   Section        0  pmbus.o(i.PMBUS_vCopyDebugData)
    i.PMBUS_vCopyPecAndOringStatus           0x080097c4   Section        0  pmbus.o(i.PMBUS_vCopyPecAndOringStatus)
    i.PMBUS_vCopySensorData                  0x080097c8   Section        0  pmbus.o(i.PMBUS_vCopySensorData)
    i.PMBUS_vCopyStatusData                  0x08009e04   Section        0  pmbus.o(i.PMBUS_vCopyStatusData)
    i.PMBUS_vInit                            0x0800a210   Section        0  pmbus.o(i.PMBUS_vInit)
    i.PMBUS_vSaveBlackBoxData2Buff           0x0800a304   Section        0  pmbus.o(i.PMBUS_vSaveBlackBoxData2Buff)
    i.PMBUS_vSaveBlackBoxVinData2Buff        0x0800a370   Section        0  pmbus.o(i.PMBUS_vSaveBlackBoxVinData2Buff)
    i.PMBUS_vSendData                        0x0800a394   Section        0  pmbus.o(i.PMBUS_vSendData)
    i.PORT_u8ReadGpioPin                     0x0800b2dc   Section        0  port.o(i.PORT_u8ReadGpioPin)
    i.PORT_vInit                             0x0800b30c   Section        0  port.o(i.PORT_vInit)
    i.PORT_vSetGpioMode                      0x0800b3f4   Section        0  port.o(i.PORT_vSetGpioMode)
    i.PORT_vSetGpioPin                       0x0800b490   Section        0  port.o(i.PORT_vSetGpioPin)
    i.PORT_vSetGpioPinToggle                 0x0800b4cc   Section        0  port.o(i.PORT_vSetGpioPinToggle)
    i.PSUCTRL_RTE_Read_B_R_AUX_MODE          0x0800b4f4   Section        0  psuctrl.o(i.PSUCTRL_RTE_Read_B_R_AUX_MODE)
    PSUCTRL_RTE_Read_B_R_AUX_MODE            0x0800b4f5   Thumb Code    10  psuctrl.o(i.PSUCTRL_RTE_Read_B_R_AUX_MODE)
    i.PSUCTRL_RTE_Read_B_R_REMOTE_ON         0x0800b504   Section        0  psuctrl.o(i.PSUCTRL_RTE_Read_B_R_REMOTE_ON)
    PSUCTRL_RTE_Read_B_R_REMOTE_ON           0x0800b505   Thumb Code    10  psuctrl.o(i.PSUCTRL_RTE_Read_B_R_REMOTE_ON)
    i.PSUCTRL_RTE_Read_B_R_STA_VSB_ON        0x0800b514   Section        0  psuctrl.o(i.PSUCTRL_RTE_Read_B_R_STA_VSB_ON)
    PSUCTRL_RTE_Read_B_R_STA_VSB_ON          0x0800b515   Thumb Code    10  psuctrl.o(i.PSUCTRL_RTE_Read_B_R_STA_VSB_ON)
    i.PSUCTRL_RTE_Read_B_R_V1_FAULT_ACTIVE   0x0800b524   Section        0  psuctrl.o(i.PSUCTRL_RTE_Read_B_R_V1_FAULT_ACTIVE)
    PSUCTRL_RTE_Read_B_R_V1_FAULT_ACTIVE     0x0800b525   Thumb Code    10  psuctrl.o(i.PSUCTRL_RTE_Read_B_R_V1_FAULT_ACTIVE)
    i.PSUCTRL_RTE_Read_B_R_V1_OCP            0x0800b534   Section        0  psuctrl.o(i.PSUCTRL_RTE_Read_B_R_V1_OCP)
    PSUCTRL_RTE_Read_B_R_V1_OCP              0x0800b535   Thumb Code    10  psuctrl.o(i.PSUCTRL_RTE_Read_B_R_V1_OCP)
    i.PSUCTRL_RTE_Read_B_R_V1_OVP            0x0800b544   Section        0  psuctrl.o(i.PSUCTRL_RTE_Read_B_R_V1_OVP)
    PSUCTRL_RTE_Read_B_R_V1_OVP              0x0800b545   Thumb Code    10  psuctrl.o(i.PSUCTRL_RTE_Read_B_R_V1_OVP)
    i.PSUCTRL_RTE_Read_B_R_V1_UVP            0x0800b554   Section        0  psuctrl.o(i.PSUCTRL_RTE_Read_B_R_V1_UVP)
    PSUCTRL_RTE_Read_B_R_V1_UVP              0x0800b555   Thumb Code    10  psuctrl.o(i.PSUCTRL_RTE_Read_B_R_V1_UVP)
    i.PSUCTRL_RTE_Read_B_R_VIN_OK            0x0800b564   Section        0  psuctrl.o(i.PSUCTRL_RTE_Read_B_R_VIN_OK)
    PSUCTRL_RTE_Read_B_R_VIN_OK              0x0800b565   Thumb Code    10  psuctrl.o(i.PSUCTRL_RTE_Read_B_R_VIN_OK)
    i.PSUCTRL_RTE_Read_B_R_VSB_OCP           0x0800b574   Section        0  psuctrl.o(i.PSUCTRL_RTE_Read_B_R_VSB_OCP)
    PSUCTRL_RTE_Read_B_R_VSB_OCP             0x0800b575   Thumb Code    10  psuctrl.o(i.PSUCTRL_RTE_Read_B_R_VSB_OCP)
    i.PSUCTRL_Rte_Read_B_R_TEMP_ANY_OTP      0x0800b584   Section        0  psuctrl.o(i.PSUCTRL_Rte_Read_B_R_TEMP_ANY_OTP)
    PSUCTRL_Rte_Read_B_R_TEMP_ANY_OTP        0x0800b585   Thumb Code    10  psuctrl.o(i.PSUCTRL_Rte_Read_B_R_TEMP_ANY_OTP)
    i.PSUCTRL_Rte_Write_B_P_OUTPUT_OK        0x0800b594   Section        0  psuctrl.o(i.PSUCTRL_Rte_Write_B_P_OUTPUT_OK)
    PSUCTRL_Rte_Write_B_P_OUTPUT_OK          0x0800b595   Thumb Code    22  psuctrl.o(i.PSUCTRL_Rte_Write_B_P_OUTPUT_OK)
    i.PSUCTRL_Rte_Write_B_P_STA_V1_ON        0x0800b5b0   Section        0  psuctrl.o(i.PSUCTRL_Rte_Write_B_P_STA_V1_ON)
    PSUCTRL_Rte_Write_B_P_STA_V1_ON          0x0800b5b1   Thumb Code    26  psuctrl.o(i.PSUCTRL_Rte_Write_B_P_STA_V1_ON)
    i.PSUCTRL_Rte_Write_B_P_STA_VSB_ON       0x0800b5d0   Section        0  psuctrl.o(i.PSUCTRL_Rte_Write_B_P_STA_VSB_ON)
    PSUCTRL_Rte_Write_B_P_STA_VSB_ON         0x0800b5d1   Thumb Code    22  psuctrl.o(i.PSUCTRL_Rte_Write_B_P_STA_VSB_ON)
    i.PSUCTRL_Rte_Write_B_P_TURN_ON_MAIN     0x0800b5ec   Section        0  psuctrl.o(i.PSUCTRL_Rte_Write_B_P_TURN_ON_MAIN)
    PSUCTRL_Rte_Write_B_P_TURN_ON_MAIN       0x0800b5ed   Thumb Code    20  psuctrl.o(i.PSUCTRL_Rte_Write_B_P_TURN_ON_MAIN)
    i.PSUCTRL_Rte_Write_B_P_V1_MONI_EN       0x0800b604   Section        0  psuctrl.o(i.PSUCTRL_Rte_Write_B_P_V1_MONI_EN)
    PSUCTRL_Rte_Write_B_P_V1_MONI_EN         0x0800b605   Thumb Code    22  psuctrl.o(i.PSUCTRL_Rte_Write_B_P_V1_MONI_EN)
    i.PSUCTRL_Rte_Write_B_P_VSB_MONI_EN      0x0800b620   Section        0  psuctrl.o(i.PSUCTRL_Rte_Write_B_P_VSB_MONI_EN)
    PSUCTRL_Rte_Write_B_P_VSB_MONI_EN        0x0800b621   Thumb Code    22  psuctrl.o(i.PSUCTRL_Rte_Write_B_P_VSB_MONI_EN)
    i.PSUCTRL_Rte_Write_P_u16TrimV1Gain      0x0800b63c   Section        0  psuctrl.o(i.PSUCTRL_Rte_Write_P_u16TrimV1Gain)
    PSUCTRL_Rte_Write_P_u16TrimV1Gain        0x0800b63d   Thumb Code     6  psuctrl.o(i.PSUCTRL_Rte_Write_P_u16TrimV1Gain)
    i.PSUCTRL_Rte_Write_P_u16TrimV1GainAct   0x0800b648   Section        0  psuctrl.o(i.PSUCTRL_Rte_Write_P_u16TrimV1GainAct)
    PSUCTRL_Rte_Write_P_u16TrimV1GainAct     0x0800b649   Thumb Code     6  psuctrl.o(i.PSUCTRL_Rte_Write_P_u16TrimV1GainAct)
    i.PSUCTRL_Rte_Write_P_u16TrimV1GainOvp   0x0800b654   Section        0  psuctrl.o(i.PSUCTRL_Rte_Write_P_u16TrimV1GainOvp)
    PSUCTRL_Rte_Write_P_u16TrimV1GainOvp     0x0800b655   Thumb Code     6  psuctrl.o(i.PSUCTRL_Rte_Write_P_u16TrimV1GainOvp)
    i.PSUCTRL_SCFG_vVsbOvpDuty               0x0800b660   Section        0  psuctrl.o(i.PSUCTRL_SCFG_vVsbOvpDuty)
    PSUCTRL_SCFG_vVsbOvpDuty                 0x0800b661   Thumb Code    14  psuctrl.o(i.PSUCTRL_SCFG_vVsbOvpDuty)
    i.PSUCTRL_SCFG_vVsbSetOn                 0x0800b670   Section        0  psuctrl.o(i.PSUCTRL_SCFG_vVsbSetOn)
    PSUCTRL_SCFG_vVsbSetOn                   0x0800b671   Thumb Code    60  psuctrl.o(i.PSUCTRL_SCFG_vVsbSetOn)
    i.PSUCTRL_vInit                          0x0800b6b0   Section        0  psuctrl.o(i.PSUCTRL_vInit)
    i.PSUCTRL_vTrim                          0x0800b6c4   Section        0  psuctrl.o(i.PSUCTRL_vTrim)
    i.PSUCTRL_vV1Out                         0x0800b8d8   Section        0  psuctrl.o(i.PSUCTRL_vV1Out)
    i.PSUCTRL_vVsbOut                        0x0800bac8   Section        0  psuctrl.o(i.PSUCTRL_vVsbOut)
    i.PWM_vInit                              0x0800bcac   Section        0  pwm.o(i.PWM_vInit)
    i.PWM_vPwmDutyUpdate                     0x0800be0c   Section        0  pwm.o(i.PWM_vPwmDutyUpdate)
    i.PWR_BackupAccessCmd                    0x0800be98   Section        0  stdperiphdriver.o(i.PWR_BackupAccessCmd)
    i.RCC_AHBPeriphClockCmd                  0x0800bec0   Section        0  stdperiphdriver.o(i.RCC_AHBPeriphClockCmd)
    i.RCC_APB1PeriphClockCmd                 0x0800bee0   Section        0  stdperiphdriver.o(i.RCC_APB1PeriphClockCmd)
    i.RCC_APB2PeriphClockCmd                 0x0800bf00   Section        0  stdperiphdriver.o(i.RCC_APB2PeriphClockCmd)
    i.RCC_APB2PeriphResetCmd                 0x0800bf20   Section        0  stdperiphdriver.o(i.RCC_APB2PeriphResetCmd)
    i.RCC_BackupResetCmd                     0x0800bf40   Section        0  stdperiphdriver.o(i.RCC_BackupResetCmd)
    i.RCC_GetClocksFreq                      0x0800bf68   Section        0  stdperiphdriver.o(i.RCC_GetClocksFreq)
    i.RCC_RTCCLKCmd                          0x0800c1b4   Section        0  stdperiphdriver.o(i.RCC_RTCCLKCmd)
    i.RCC_RTCCLKConfig                       0x0800c1dc   Section        0  stdperiphdriver.o(i.RCC_RTCCLKConfig)
    i.RTC_EnterInitMode                      0x0800c1ec   Section        0  stdperiphdriver.o(i.RTC_EnterInitMode)
    i.RTC_ExitInitMode                       0x0800c244   Section        0  stdperiphdriver.o(i.RTC_ExitInitMode)
    i.RTC_Init                               0x0800c258   Section        0  stdperiphdriver.o(i.RTC_Init)
    i.RTC_WaitForSynchro                     0x0800c2b0   Section        0  stdperiphdriver.o(i.RTC_WaitForSynchro)
    i.RTC_vInit                              0x0800c31c   Section        0  rtc.o(i.RTC_vInit)
    i.RTE_vInit                              0x0800c38c   Section        0  rte.o(i.RTE_vInit)
    i.SCHM_vInit                             0x0800c50c   Section        0  schm.o(i.SCHM_vInit)
    i.SCHM_vSchmIdleLoop                     0x0800c610   Section        0  schm.o(i.SCHM_vSchmIdleLoop)
    i.SCHM_vSchmRoutine                      0x0800c628   Section        0  schm.o(i.SCHM_vSchmRoutine)
    i.SYSCFG_MemoryRemapConfig               0x0800c894   Section        0  stdperiphdriver.o(i.SYSCFG_MemoryRemapConfig)
    i.S_DAM_SCFG_bRead                       0x0800c8b0   Section        0  s_dam.o(i.S_DAM_SCFG_bRead)
    S_DAM_SCFG_bRead                         0x0800c8b1   Thumb Code    24  s_dam.o(i.S_DAM_SCFG_bRead)
    i.S_DAM_SCFG_bWrite                      0x0800c8c8   Section        0  s_dam.o(i.S_DAM_SCFG_bWrite)
    S_DAM_SCFG_bWrite                        0x0800c8c9   Thumb Code    24  s_dam.o(i.S_DAM_SCFG_bWrite)
    i.S_DAM_SCFG_u32Crc                      0x0800c8e0   Section        0  s_dam.o(i.S_DAM_SCFG_u32Crc)
    S_DAM_SCFG_u32Crc                        0x0800c8e1   Thumb Code    32  s_dam.o(i.S_DAM_SCFG_u32Crc)
    i.S_DAM_bRead                            0x0800c900   Section        0  s_dam.o(i.S_DAM_bRead)
    i.S_DAM_bWrite                           0x0800ca1c   Section        0  s_dam.o(i.S_DAM_bWrite)
    i.S_DAM_mgU32HeaderIndex                 0x0800cb48   Section        0  s_dam.o(i.S_DAM_mgU32HeaderIndex)
    S_DAM_mgU32HeaderIndex                   0x0800cb49   Thumb Code    12  s_dam.o(i.S_DAM_mgU32HeaderIndex)
    i.S_DAM_u32GetLastRecordId               0x0800cb58   Section        0  s_dam.o(i.S_DAM_u32GetLastRecordId)
    i.SystemInit                             0x0800cbac   Section        0  clock.o(i.SystemInit)
    i.TEMPCTRL_Rte_Read_R_u161mVLlcNtc       0x0800cc28   Section        0  tempctrl.o(i.TEMPCTRL_Rte_Read_R_u161mVLlcNtc)
    TEMPCTRL_Rte_Read_R_u161mVLlcNtc         0x0800cc29   Thumb Code    14  tempctrl.o(i.TEMPCTRL_Rte_Read_R_u161mVLlcNtc)
    i.TEMPCTRL_Rte_Read_R_u161mVPfcNtc       0x0800cc40   Section        0  tempctrl.o(i.TEMPCTRL_Rte_Read_R_u161mVPfcNtc)
    TEMPCTRL_Rte_Read_R_u161mVPfcNtc         0x0800cc41   Thumb Code    14  tempctrl.o(i.TEMPCTRL_Rte_Read_R_u161mVPfcNtc)
    i.TEMPCTRL_Rte_Read_R_u161mVSrNtc        0x0800cc58   Section        0  tempctrl.o(i.TEMPCTRL_Rte_Read_R_u161mVSrNtc)
    TEMPCTRL_Rte_Read_R_u161mVSrNtc          0x0800cc59   Thumb Code    14  tempctrl.o(i.TEMPCTRL_Rte_Read_R_u161mVSrNtc)
    i.TEMPCTRL_SCFG_u16ReadInletNtc          0x0800cc70   Section        0  tempctrl.o(i.TEMPCTRL_SCFG_u16ReadInletNtc)
    TEMPCTRL_SCFG_u16ReadInletNtc            0x0800cc71   Thumb Code    16  tempctrl.o(i.TEMPCTRL_SCFG_u16ReadInletNtc)
    i.TEMPCTRL_SCFG_u16ReadOutletNtc         0x0800cc84   Section        0  tempctrl.o(i.TEMPCTRL_SCFG_u16ReadOutletNtc)
    TEMPCTRL_SCFG_u16ReadOutletNtc           0x0800cc85   Thumb Code    16  tempctrl.o(i.TEMPCTRL_SCFG_u16ReadOutletNtc)
    i.TEMPCTRL_s16ReadTempValue              0x0800cc98   Section        0  tempctrl.o(i.TEMPCTRL_s16ReadTempValue)
    i.TEMPCTRL_u16ReadAdcAvgValue            0x0800ccac   Section        0  tempctrl.o(i.TEMPCTRL_u16ReadAdcAvgValue)
    i.TEMPCTRL_vInit                         0x0800ccbc   Section        0  tempctrl.o(i.TEMPCTRL_vInit)
    i.TEMPCTRL_vLookUpNtcTemperature         0x0800cd74   Section        0  tempctrl.o(i.TEMPCTRL_vLookUpNtcTemperature)
    i.TEMPCTRL_vNtcTempMonitor               0x0800cfe4   Section        0  tempctrl.o(i.TEMPCTRL_vNtcTempMonitor)
    i.TEMPCTRL_vNtcVoltAverage               0x0800d278   Section        0  tempctrl.o(i.TEMPCTRL_vNtcVoltAverage)
    i.TIMECATL_SCFG_u8GetCrc8                0x0800d3dc   Section        0  timectrl.o(i.TIMECATL_SCFG_u8GetCrc8)
    TIMECATL_SCFG_u8GetCrc8                  0x0800d3dd   Thumb Code    16  timectrl.o(i.TIMECATL_SCFG_u8GetCrc8)
    i.TIMECATL_SCFG_vWriteMem                0x0800d3ec   Section        0  timectrl.o(i.TIMECATL_SCFG_vWriteMem)
    TIMECATL_SCFG_vWriteMem                  0x0800d3ed   Thumb Code    20  timectrl.o(i.TIMECATL_SCFG_vWriteMem)
    i.TIMECTRL_RTE_Write_B_P_PSO_LAST_UPDTING 0x0800d400   Section        0  timectrl.o(i.TIMECTRL_RTE_Write_B_P_PSO_LAST_UPDTING)
    TIMECTRL_RTE_Write_B_P_PSO_LAST_UPDTING  0x0800d401   Thumb Code    26  timectrl.o(i.TIMECTRL_RTE_Write_B_P_PSO_LAST_UPDTING)
    i.TIMECTRL_RTE_Write_B_P_PSO_TOTAL_UPDTING 0x0800d420   Section        0  timectrl.o(i.TIMECTRL_RTE_Write_B_P_PSO_TOTAL_UPDTING)
    TIMECTRL_RTE_Write_B_P_PSO_TOTAL_UPDTING 0x0800d421   Thumb Code    26  timectrl.o(i.TIMECTRL_RTE_Write_B_P_PSO_TOTAL_UPDTING)
    i.TIMECTRL_RTE_Write_P_u32PosTotal       0x0800d440   Section        0  timectrl.o(i.TIMECTRL_RTE_Write_P_u32PosTotal)
    TIMECTRL_RTE_Write_P_u32PosTotal         0x0800d441   Thumb Code     6  timectrl.o(i.TIMECTRL_RTE_Write_P_u32PosTotal)
    i.TIMECTRL_RTE_Write_P_vDataCopy         0x0800d44c   Section        0  timectrl.o(i.TIMECTRL_RTE_Write_P_vDataCopy)
    TIMECTRL_RTE_Write_P_vDataCopy           0x0800d44d   Thumb Code     6  timectrl.o(i.TIMECTRL_RTE_Write_P_vDataCopy)
    i.TIMECTRL_RTE_Write_P_vWrBitHoursUpd    0x0800d458   Section        0  timectrl.o(i.TIMECTRL_RTE_Write_P_vWrBitHoursUpd)
    TIMECTRL_RTE_Write_P_vWrBitHoursUpd      0x0800d459   Thumb Code    26  timectrl.o(i.TIMECTRL_RTE_Write_P_vWrBitHoursUpd)
    i.TIMECTRL_RTE_Write_P_vWrHoursUsed      0x0800d478   Section        0  timectrl.o(i.TIMECTRL_RTE_Write_P_vWrHoursUsed)
    TIMECTRL_RTE_Write_P_vWrHoursUsed        0x0800d479   Thumb Code     6  timectrl.o(i.TIMECTRL_RTE_Write_P_vWrHoursUsed)
    i.TIMECTRL_vInit                         0x0800d484   Section        0  timectrl.o(i.TIMECTRL_vInit)
    i.TIMECTRL_vSaveHoursUsed                0x0800d5c8   Section        0  timectrl.o(i.TIMECTRL_vSaveHoursUsed)
    i.TIMER_u8GetUpdateFlg                   0x0800d7d8   Section        0  timer.o(i.TIMER_u8GetUpdateFlg)
    i.TIMER_vClearUpdateFlg                  0x0800d7f8   Section        0  timer.o(i.TIMER_vClearUpdateFlg)
    i.TIMER_vInit                            0x0800d818   Section        0  timer.o(i.TIMER_vInit)
    i.TIM_ClearFlag                          0x0800d8e0   Section        0  stdperiphdriver.o(i.TIM_ClearFlag)
    i.TIM_Cmd                                0x0800d8e8   Section        0  stdperiphdriver.o(i.TIM_Cmd)
    i.TIM_CtrlPWMOutputs                     0x0800d904   Section        0  stdperiphdriver.o(i.TIM_CtrlPWMOutputs)
    i.TIM_GenerateEvent                      0x0800d926   Section        0  stdperiphdriver.o(i.TIM_GenerateEvent)
    i.TIM_GetFlagStatus                      0x0800d92a   Section        0  stdperiphdriver.o(i.TIM_GetFlagStatus)
    i.TIM_ITConfig                           0x0800d93e   Section        0  stdperiphdriver.o(i.TIM_ITConfig)
    i.TIM_OC1Init                            0x0800d954   Section        0  stdperiphdriver.o(i.TIM_OC1Init)
    i.TIM_OC1PreloadConfig                   0x0800d9e8   Section        0  stdperiphdriver.o(i.TIM_OC1PreloadConfig)
    i.TIM_OC2Init                            0x0800da00   Section        0  stdperiphdriver.o(i.TIM_OC2Init)
    i.TIM_OC2PreloadConfig                   0x0800daac   Section        0  stdperiphdriver.o(i.TIM_OC2PreloadConfig)
    i.TIM_OC3Init                            0x0800dac4   Section        0  stdperiphdriver.o(i.TIM_OC3Init)
    i.TIM_OC3PreloadConfig                   0x0800db5c   Section        0  stdperiphdriver.o(i.TIM_OC3PreloadConfig)
    i.TIM_OC4Init                            0x0800db74   Section        0  stdperiphdriver.o(i.TIM_OC4Init)
    i.TIM_OC4PreloadConfig                   0x0800dbe4   Section        0  stdperiphdriver.o(i.TIM_OC4PreloadConfig)
    i.TIM_SetCompare1                        0x0800dbfc   Section        0  stdperiphdriver.o(i.TIM_SetCompare1)
    i.TIM_SetCompare2                        0x0800dc00   Section        0  stdperiphdriver.o(i.TIM_SetCompare2)
    i.TIM_SetCompare3                        0x0800dc04   Section        0  stdperiphdriver.o(i.TIM_SetCompare3)
    i.TIM_SetCompare4                        0x0800dc08   Section        0  stdperiphdriver.o(i.TIM_SetCompare4)
    i.TIM_TimeBaseInit                       0x0800dc0c   Section        0  stdperiphdriver.o(i.TIM_TimeBaseInit)
    i.UARTPRT_vHandleRxData                  0x0800dc88   Section        0  uartprt.o(i.UARTPRT_vHandleRxData)
    i.UARTPRT_vHandleTxData                  0x0800de00   Section        0  uartprt.o(i.UARTPRT_vHandleTxData)
    i.UARTPRT_vInit                          0x0800e04c   Section        0  uartprt.o(i.UARTPRT_vInit)
    i.UARTPRT_vSetBootMode                   0x0800e1e8   Section        0  uartprt.o(i.UARTPRT_vSetBootMode)
    i.UARTPRT_vTmOutMon                      0x0800e208   Section        0  uartprt.o(i.UARTPRT_vTmOutMon)
    i.UARTPRT_vTxData                        0x0800e3d0   Section        0  uartprt.o(i.UARTPRT_vTxData)
    i.UARTPRT_vUsartIrqHandler               0x0800e584   Section        0  uartprt.o(i.UARTPRT_vUsartIrqHandler)
    i.UART_u16UartReadBaudrate               0x0800e6f0   Section        0  uart.o(i.UART_u16UartReadBaudrate)
    i.UART_u8UartReadRxReg                   0x0800e704   Section        0  uart.o(i.UART_u8UartReadRxReg)
    i.UART_u8UartReadTxEmptyFlg              0x0800e71c   Section        0  uart.o(i.UART_u8UartReadTxEmptyFlg)
    i.UART_vInit                             0x0800e734   Section        0  uart.o(i.UART_vInit)
    i.UART_vUartWriteTxReg                   0x0800e860   Section        0  uart.o(i.UART_vUartWriteTxReg)
    i.USART1_IRQHandler                      0x0800e874   Section        0  uart.o(i.USART1_IRQHandler)
    i.USART2_IRQHandler                      0x0800e8a0   Section        0  uart.o(i.USART2_IRQHandler)
    i.USART_ClearITPendingBit                0x0800e8cc   Section        0  stdperiphdriver.o(i.USART_ClearITPendingBit)
    i.USART_Cmd                              0x0800e8de   Section        0  stdperiphdriver.o(i.USART_Cmd)
    i.USART_GetITStatus                      0x0800e8f6   Section        0  stdperiphdriver.o(i.USART_GetITStatus)
    i.USART_ITConfig                         0x0800e944   Section        0  stdperiphdriver.o(i.USART_ITConfig)
    i.USART_Init                             0x0800e988   Section        0  stdperiphdriver.o(i.USART_Init)
    i.__ARM_common_switch8                   0x0800ea80   Section        0  buffer.o(i.__ARM_common_switch8)
    i.__scatterload_copy                     0x0800ea9c   Section       14  handlers.o(i.__scatterload_copy)
    i.__scatterload_null                     0x0800eaaa   Section        2  handlers.o(i.__scatterload_null)
    i.__scatterload_zeroinit                 0x0800eaac   Section       14  handlers.o(i.__scatterload_zeroinit)
    i.main                                   0x0800eaba   Section        0  main.o(i.main)
    i.mg_AdjSpeed                            0x0800ead8   Section        0  fanctrl.o(i.mg_AdjSpeed)
    mg_AdjSpeed                              0x0800ead9   Thumb Code   634  fanctrl.o(i.mg_AdjSpeed)
    i.mg_s32GetCalibratedData                0x0800ed78   Section        0  cali.o(i.mg_s32GetCalibratedData)
    mg_s32GetCalibratedData                  0x0800ed79   Thumb Code    84  cali.o(i.mg_s32GetCalibratedData)
    i.mg_u16TxLinearDatFormatDiv128          0x0800edcc   Section        0  pmbus.o(i.mg_u16TxLinearDatFormatDiv128)
    mg_u16TxLinearDatFormatDiv128            0x0800edcd   Thumb Code   408  pmbus.o(i.mg_u16TxLinearDatFormatDiv128)
    i.mg_u16TxLinearDatFormatDiv128_PSMI     0x0800ef98   Section        0  pmbus.o(i.mg_u16TxLinearDatFormatDiv128_PSMI)
    mg_u16TxLinearDatFormatDiv128_PSMI       0x0800ef99   Thumb Code   124  pmbus.o(i.mg_u16TxLinearDatFormatDiv128_PSMI)
    i.mg_u16TxLinearDatFormatDiv128_PSMI_TEMP 0x0800f014   Section        0  pmbus.o(i.mg_u16TxLinearDatFormatDiv128_PSMI_TEMP)
    mg_u16TxLinearDatFormatDiv128_PSMI_TEMP  0x0800f015   Thumb Code    62  pmbus.o(i.mg_u16TxLinearDatFormatDiv128_PSMI_TEMP)
    i.mg_u32TimeoutUserCallback              0x0800f052   Section        0  eeprom.o(i.mg_u32TimeoutUserCallback)
    mg_u32TimeoutUserCallback                0x0800f053   Thumb Code     4  eeprom.o(i.mg_u32TimeoutUserCallback)
    i.mg_u8IsMaxCountEventFaultAndWarning    0x0800f058   Section        0  blabox.o(i.mg_u8IsMaxCountEventFaultAndWarning)
    mg_u8IsMaxCountEventFaultAndWarning      0x0800f059   Thumb Code   114  blabox.o(i.mg_u8IsMaxCountEventFaultAndWarning)
    i.mg_vCalcV1CurrentGain                  0x0800f0d0   Section        0  cali.o(i.mg_vCalcV1CurrentGain)
    mg_vCalcV1CurrentGain                    0x0800f0d1   Thumb Code    46  cali.o(i.mg_vCalcV1CurrentGain)
    i.mg_vCaliDefaultIinAc                   0x0800f110   Section        0  cali.o(i.mg_vCaliDefaultIinAc)
    mg_vCaliDefaultIinAc                     0x0800f111   Thumb Code    42  cali.o(i.mg_vCaliDefaultIinAc)
    i.mg_vCaliDefaultIoutV1                  0x0800f144   Section        0  cali.o(i.mg_vCaliDefaultIoutV1)
    mg_vCaliDefaultIoutV1                    0x0800f145   Thumb Code    42  cali.o(i.mg_vCaliDefaultIoutV1)
    i.mg_vCaliDefaultIoutVsb                 0x0800f178   Section        0  cali.o(i.mg_vCaliDefaultIoutVsb)
    mg_vCaliDefaultIoutVsb                   0x0800f179   Thumb Code    42  cali.o(i.mg_vCaliDefaultIoutVsb)
    i.mg_vCaliDefaultPinAc                   0x0800f1ac   Section        0  cali.o(i.mg_vCaliDefaultPinAc)
    mg_vCaliDefaultPinAc                     0x0800f1ad   Thumb Code    42  cali.o(i.mg_vCaliDefaultPinAc)
    i.mg_vCaliDefaultV1IShare                0x0800f1e0   Section        0  cali.o(i.mg_vCaliDefaultV1IShare)
    mg_vCaliDefaultV1IShare                  0x0800f1e1   Thumb Code    42  cali.o(i.mg_vCaliDefaultV1IShare)
    i.mg_vCaliDefaultVinAc                   0x0800f214   Section        0  cali.o(i.mg_vCaliDefaultVinAc)
    mg_vCaliDefaultVinAc                     0x0800f215   Thumb Code    40  cali.o(i.mg_vCaliDefaultVinAc)
    i.mg_vCaliDefaultVoutV1                  0x0800f244   Section        0  cali.o(i.mg_vCaliDefaultVoutV1)
    mg_vCaliDefaultVoutV1                    0x0800f245   Thumb Code    42  cali.o(i.mg_vCaliDefaultVoutV1)
    i.mg_vCaliDefaultVoutVsb                 0x0800f278   Section        0  cali.o(i.mg_vCaliDefaultVoutVsb)
    mg_vCaliDefaultVoutVsb                   0x0800f279   Thumb Code    42  cali.o(i.mg_vCaliDefaultVoutVsb)
    i.mg_vCalibrateIShave                    0x0800f2ac   Section        0  cali.o(i.mg_vCalibrateIShave)
    mg_vCalibrateIShave                      0x0800f2ad   Thumb Code    24  cali.o(i.mg_vCalibrateIShave)
    i.mg_vCalibrateIin                       0x0800f2d0   Section        0  cali.o(i.mg_vCalibrateIin)
    mg_vCalibrateIin                         0x0800f2d1   Thumb Code   158  cali.o(i.mg_vCalibrateIin)
    i.mg_vCalibratePin                       0x0800f384   Section        0  cali.o(i.mg_vCalibratePin)
    mg_vCalibratePin                         0x0800f385   Thumb Code     2  cali.o(i.mg_vCalibratePin)
    i.mg_vCalibrateV1                        0x0800f388   Section        0  cali.o(i.mg_vCalibrateV1)
    mg_vCalibrateV1                          0x0800f389   Thumb Code   112  cali.o(i.mg_vCalibrateV1)
    i.mg_vCalibrateV1Sense                   0x0800f408   Section        0  cali.o(i.mg_vCalibrateV1Sense)
    mg_vCalibrateV1Sense                     0x0800f409   Thumb Code    24  cali.o(i.mg_vCalibrateV1Sense)
    i.mg_vCalibrateVin                       0x0800f42c   Section        0  cali.o(i.mg_vCalibrateVin)
    mg_vCalibrateVin                         0x0800f42d   Thumb Code    36  cali.o(i.mg_vCalibrateVin)
    i.mg_vCalibrateVsb                       0x0800f45c   Section        0  cali.o(i.mg_vCalibrateVsb)
    mg_vCalibrateVsb                         0x0800f45d   Thumb Code   122  cali.o(i.mg_vCalibrateVsb)
    i.mg_vClearFaultBit                      0x0800f4e4   Section        0  pmbus.o(i.mg_vClearFaultBit)
    mg_vClearFaultBit                        0x0800f4e5   Thumb Code   816  pmbus.o(i.mg_vClearFaultBit)
    i.mg_vCopyCaliData                       0x0800f838   Section        0  cali.o(i.mg_vCopyCaliData)
    mg_vCopyCaliData                         0x0800f839   Thumb Code   430  cali.o(i.mg_vCopyCaliData)
    i.mg_vCopyDataToBuf                      0x0800f9f4   Section        0  cali.o(i.mg_vCopyDataToBuf)
    mg_vCopyDataToBuf                        0x0800f9f5   Thumb Code    14  cali.o(i.mg_vCopyDataToBuf)
    i.mg_vI2cReset                           0x0800fa04   Section        0  i2c.o(i.mg_vI2cReset)
    mg_vI2cReset                             0x0800fa05   Thumb Code   152  i2c.o(i.mg_vI2cReset)
    i.mg_vIntOscSel                          0x0800faa0   Section        0  clock.o(i.mg_vIntOscSel)
    mg_vIntOscSel                            0x0800faa1   Thumb Code   118  clock.o(i.mg_vIntOscSel)
    i.mg_vMfrGetACCntBlackBox                0x0800fb20   Section        0  blabox.o(i.mg_vMfrGetACCntBlackBox)
    mg_vMfrGetACCntBlackBox                  0x0800fb21   Thumb Code    28  blabox.o(i.mg_vMfrGetACCntBlackBox)
    i.mg_vMfrGetPSONCntBlackBox              0x0800fb3c   Section        0  blabox.o(i.mg_vMfrGetPSONCntBlackBox)
    mg_vMfrGetPSONCntBlackBox                0x0800fb3d   Thumb Code    28  blabox.o(i.mg_vMfrGetPSONCntBlackBox)
    i.mg_vMfrGetTimePSONBlackBox             0x0800fb58   Section        0  blabox.o(i.mg_vMfrGetTimePSONBlackBox)
    mg_vMfrGetTimePSONBlackBox               0x0800fb59   Thumb Code    34  blabox.o(i.mg_vMfrGetTimePSONBlackBox)
    i.mg_vMfrSetACCntBlackBox                0x0800fb7c   Section        0  blabox.o(i.mg_vMfrSetACCntBlackBox)
    mg_vMfrSetACCntBlackBox                  0x0800fb7d   Thumb Code    72  blabox.o(i.mg_vMfrSetACCntBlackBox)
    i.mg_vMfrSetPSONCntBlackBox              0x0800fbcc   Section        0  blabox.o(i.mg_vMfrSetPSONCntBlackBox)
    mg_vMfrSetPSONCntBlackBox                0x0800fbcd   Thumb Code    72  blabox.o(i.mg_vMfrSetPSONCntBlackBox)
    i.mg_vPushEventFaultBlackBox             0x0800fc1c   Section        0  blabox.o(i.mg_vPushEventFaultBlackBox)
    mg_vPushEventFaultBlackBox               0x0800fc1d   Thumb Code   386  blabox.o(i.mg_vPushEventFaultBlackBox)
    i.mg_vReadAcOffset                       0x0800fdb8   Section        0  mem.o(i.mg_vReadAcOffset)
    mg_vReadAcOffset                         0x0800fdb9   Thumb Code    90  mem.o(i.mg_vReadAcOffset)
    i.mg_vReadCalibPara                      0x0800fe1c   Section        0  cali.o(i.mg_vReadCalibPara)
    mg_vReadCalibPara                        0x0800fe1d   Thumb Code   208  cali.o(i.mg_vReadCalibPara)
    i.mg_vReadEepData                        0x0800fef4   Section        0  cali.o(i.mg_vReadEepData)
    mg_vReadEepData                          0x0800fef5   Thumb Code   144  cali.o(i.mg_vReadEepData)
    i.mg_vReadFwRevData                      0x0800ff88   Section        0  mem.o(i.mg_vReadFwRevData)
    mg_vReadFwRevData                        0x0800ff89   Thumb Code   504  mem.o(i.mg_vReadFwRevData)
    i.mg_vReadMfrBlaboxHeader                0x0801019c   Section        0  blabox.o(i.mg_vReadMfrBlaboxHeader)
    mg_vReadMfrBlaboxHeader                  0x0801019d   Thumb Code    52  blabox.o(i.mg_vReadMfrBlaboxHeader)
    i.mg_vReadMfrInfoData                    0x080101d0   Section        0  mem.o(i.mg_vReadMfrInfoData)
    mg_vReadMfrInfoData                      0x080101d1   Thumb Code    96  mem.o(i.mg_vReadMfrInfoData)
    i.mg_vReadTrimData                       0x08010234   Section        0  mem.o(i.mg_vReadTrimData)
    mg_vReadTrimData                         0x08010235   Thumb Code   200  mem.o(i.mg_vReadTrimData)
    i.mg_vSaveAcOffset                       0x08010304   Section        0  mem.o(i.mg_vSaveAcOffset)
    mg_vSaveAcOffset                         0x08010305   Thumb Code   120  mem.o(i.mg_vSaveAcOffset)
    i.mg_vSaveCaliData                       0x08010384   Section        0  cali.o(i.mg_vSaveCaliData)
    mg_vSaveCaliData                         0x08010385   Thumb Code   206  cali.o(i.mg_vSaveCaliData)
    i.mg_vSaveFwRevData                      0x08010460   Section        0  mem.o(i.mg_vSaveFwRevData)
    mg_vSaveFwRevData                        0x08010461   Thumb Code   488  mem.o(i.mg_vSaveFwRevData)
    i.mg_vSaveMfrInfoData                    0x08010668   Section        0  mem.o(i.mg_vSaveMfrInfoData)
    mg_vSaveMfrInfoData                      0x08010669   Thumb Code   116  mem.o(i.mg_vSaveMfrInfoData)
    i.mg_vSaveTrimData                       0x080106e4   Section        0  mem.o(i.mg_vSaveTrimData)
    mg_vSaveTrimData                         0x080106e5   Thumb Code   212  mem.o(i.mg_vSaveTrimData)
    i.mg_vSetCountEventFaultAndWarning       0x080107c4   Section        0  blabox.o(i.mg_vSetCountEventFaultAndWarning)
    mg_vSetCountEventFaultAndWarning         0x080107c5   Thumb Code   146  blabox.o(i.mg_vSetCountEventFaultAndWarning)
    i.mg_vSetDefaultCaliData                 0x0801085c   Section        0  cali.o(i.mg_vSetDefaultCaliData)
    mg_vSetDefaultCaliData                   0x0801085d   Thumb Code    42  cali.o(i.mg_vSetDefaultCaliData)
    i.u16Ones                                0x0801088c   Section        0  pmbus.o(i.u16Ones)
    u16Ones                                  0x0801088d   Thumb Code    26  pmbus.o(i.u16Ones)
    i.vPMBus_HandleData                      0x080108a8   Section        0  pmbus.o(i.vPMBus_HandleData)
    .constdata                               0x0801111c   Section       32  adc.o(.constdata)
    ADC_CFG_ADC_SETUP                        0x0801111c   Data          32  adc.o(.constdata)
    .constdata                               0x0801113c   Section      660  port.o(.constdata)
    PORT_CFG_PORT_SETUP                      0x0801113c   Data         660  port.o(.constdata)
    .constdata                               0x080113d0   Section       48  pwm.o(.constdata)
    PWM_CFG_PWM_SETUP                        0x080113d0   Data          48  pwm.o(.constdata)
    .constdata                               0x08011400   Section       28  timer.o(.constdata)
    TIMER_CFG_TIMER_SETUP                    0x08011400   Data          28  timer.o(.constdata)
    .constdata                               0x0801141c   Section      768  crc.o(.constdata)
    .constdata                               0x0801171c   Section      144  i2c.o(.constdata)
    I2C_CFG_I2C_SETUP                        0x0801171c   Data         144  i2c.o(.constdata)
    .constdata                               0x080117ac   Section       96  uart.o(.constdata)
    UART_CFG_UART_SETUP                      0x080117ac   Data          96  uart.o(.constdata)
    .constdata                               0x0801180c   Section       48  mem.o(.constdata)
    S_S_DAM_CFG_CFG_SETUP                    0x0801180c   Data          36  mem.o(.constdata)
    MEM_CFG_SETUP                            0x08011830   Data          12  mem.o(.constdata)
    .constdata                               0x0801183c   Section        2  uartprt.o(.constdata)
    au8SlaveAddr                             0x0801183c   Data           2  uartprt.o(.constdata)
    .constdata                               0x08011840   Section       36  s_dam.o(.constdata)
    S_S_DAM_CFG_CFG_SETUP                    0x08011840   Data          36  s_dam.o(.constdata)
    .constdata                               0x08011864   Section     1036  pmbus.o(.constdata)
    .constdata                               0x08011c70   Section      624  tempctrl.o(.constdata)
    MG_S32_TEMP_COMP_K                       0x08011c70   Data          64  tempctrl.o(.constdata)
    MG_S32_TEMP_COMP_B                       0x08011cb0   Data          64  tempctrl.o(.constdata)
    MG_U32_TEMP_COMP_THD                     0x08011cf0   Data          16  tempctrl.o(.constdata)
    TEMPCTRL_CFG_CONF                        0x08011d00   Data         100  tempctrl.o(.constdata)
    .ARM.__AT_0x20000000                     0x20000000   Section      192  flash.o(.ARM.__AT_0x20000000)
    .data                                    0x200000c4   Section       16  stdperiphdriver.o(.data)
    APBAHBPrescTable                         0x200000c4   Data          16  stdperiphdriver.o(.data)
    .data                                    0x200000d4   Section       64  adc.o(.data)
    mg_u16AdcResultRaw                       0x2000010c   Data           8  adc.o(.data)
    .data                                    0x20000114   Section        8  buffer.o(.data)
    u16SampleCounter                         0x20000114   Data           2  buffer.o(.data)
    u16ReadValue                             0x20000116   Data           2  buffer.o(.data)
    u16SampleCounter                         0x20000118   Data           2  buffer.o(.data)
    u16ReadValue                             0x2000011a   Data           2  buffer.o(.data)
    .data                                    0x2000011c   Section       10  eeprom.o(.data)
    .data                                    0x20000128   Section        8  flash.o(.data)
    .data                                    0x20000130   Section        1  port.o(.data)
    u8Mode                                   0x20000130   Data           1  port.o(.data)
    .data                                    0x20000134   Section      218  rte.o(.data)
    .data                                    0x2000020e   Section        6  schm.o(.data)
    SCHM_mg_sFlowCtrl                        0x2000020e   Data           4  schm.o(.data)
    .data                                    0x20000214   Section       10  i2c.o(.data)
    .data                                    0x20000220   Section        8  rtc.o(.data)
    .data                                    0x20000228   Section        4  cali.o(.data)
    mg_u8CaliSensor                          0x20000228   Data           1  cali.o(.data)
    mg_u16Tmp                                0x2000022a   Data           2  cali.o(.data)
    .data                                    0x2000022c   Section        8  uart.o(.data)
    mg_Uart1RxIsrCallback                    0x2000022c   Data           4  uart.o(.data)
    mg_Uart2RxIsrCallback                    0x20000230   Data           4  uart.o(.data)
    .data                                    0x20000234   Section        7  i2cprt.o(.data)
    mg_u8I2cTxCnt                            0x20000234   Data           1  i2cprt.o(.data)
    mg_u8I2cRxLen                            0x20000235   Data           1  i2cprt.o(.data)
    mg_u8I2cAddrWr                           0x20000236   Data           1  i2cprt.o(.data)
    mg_u8I2cAddrWrOld                        0x20000237   Data           1  i2cprt.o(.data)
    mg_u8I2cAddrRd                           0x20000238   Data           1  i2cprt.o(.data)
    mg_u8I2cState                            0x20000239   Data           1  i2cprt.o(.data)
    u8AddrMatchDly                           0x2000023a   Data           1  i2cprt.o(.data)
    .data                                    0x2000023b   Section        8  mem.o(.data)
    mg_u8DataBuf                             0x2000023b   Data           5  mem.o(.data)
    u8State                                  0x20000240   Data           1  mem.o(.data)
    u8SavePriState                           0x20000241   Data           1  mem.o(.data)
    u8SaveSecState                           0x20000242   Data           1  mem.o(.data)
    .data                                    0x20000244   Section       12  hwio.o(.data)
    u16PsOnCountSet                          0x20000244   Data           2  hwio.o(.data)
    u16PsOnCountClear                        0x20000246   Data           2  hwio.o(.data)
    u8VmFaultCountSet                        0x20000248   Data           1  hwio.o(.data)
    u8VmFaultCountClear                      0x20000249   Data           1  hwio.o(.data)
    u8VinOkCountSet                          0x2000024a   Data           1  hwio.o(.data)
    u8VinOkCountClear                        0x2000024b   Data           1  hwio.o(.data)
    u8I2cA0CountSet                          0x2000024c   Data           1  hwio.o(.data)
    u8I2cA0CountClear                        0x2000024d   Data           1  hwio.o(.data)
    u8I2cA1CountSet                          0x2000024e   Data           1  hwio.o(.data)
    u8I2cA1CountClear                        0x2000024f   Data           1  hwio.o(.data)
    .data                                    0x20000250   Section       16  uartprt.o(.data)
    mg_au8SlaveAddress                       0x20000250   Data           2  uartprt.o(.data)
    mg_u16Crc                                0x20000252   Data           4  uartprt.o(.data)
    mg_u8RxTimeOutDly                        0x20000256   Data           2  uartprt.o(.data)
    mg_u8RxFrameTimeOutDly                   0x20000258   Data           2  uartprt.o(.data)
    mg_u8TxTimeOutDly                        0x2000025a   Data           2  uartprt.o(.data)
    u16CrcTemp                               0x2000025c   Data           4  uartprt.o(.data)
    .data                                    0x20000260   Section       34  s_dam.o(.data)
    uSector                                  0x20000260   Data           4  s_dam.o(.data)
    u16Crc                                   0x20000264   Data           2  s_dam.o(.data)
    uSector                                  0x20000266   Data           4  s_dam.o(.data)
    u16Crc                                   0x2000026a   Data           2  s_dam.o(.data)
    u32CrcPackage                            0x2000026c   Data           4  s_dam.o(.data)
    uSector                                  0x20000270   Data           4  s_dam.o(.data)
    u16Crc                                   0x20000274   Data           2  s_dam.o(.data)
    uSector                                  0x20000276   Data           4  s_dam.o(.data)
    uSector                                  0x2000027a   Data           4  s_dam.o(.data)
    uSector                                  0x2000027e   Data           4  s_dam.o(.data)
    .data                                    0x20000282   Section       20  pmbus.o(.data)
    mg_uBootStatus                           0x20000282   Data           1  pmbus.o(.data)
    mg_u16UnlockDebugKey                     0x20000284   Data           2  pmbus.o(.data)
    mg_u8Page                                0x20000286   Data           1  pmbus.o(.data)
    mg_u8UpdSensor                           0x20000287   Data           1  pmbus.o(.data)
    mg_u16StatusUpdDly                       0x20000288   Data           2  pmbus.o(.data)
    u8RxBufOfst                              0x2000028a   Data           1  pmbus.o(.data)
    mg_u16DebugRegIndex                      0x2000028c   Data           2  pmbus.o(.data)
    mg_u8BootMcuId                           0x2000028f   Data           1  pmbus.o(.data)
    u16BootWait                              0x20000290   Data           2  pmbus.o(.data)
    u8BootFlag                               0x20000292   Data           1  pmbus.o(.data)
    u16SysCmdDuty                            0x20000294   Data           2  pmbus.o(.data)
    .data                                    0x20000296   Section       16  fanctrl.o(.data)
    mg_u16FanDuty                            0x20000296   Data           2  fanctrl.o(.data)
    mg_u8IsFanBlockTest                      0x20000298   Data           1  fanctrl.o(.data)
    u16count                                 0x2000029a   Data           2  fanctrl.o(.data)
    au8FanFailCnt                            0x2000029c   Data           2  fanctrl.o(.data)
    au8FanWarnCnt                            0x2000029e   Data           2  fanctrl.o(.data)
    au8FanOKCnt                              0x200002a0   Data           2  fanctrl.o(.data)
    u8Cnt                                    0x200002a2   Data           1  fanctrl.o(.data)
    s16FanSpeedErr                           0x200002a4   Data           2  fanctrl.o(.data)
    .data                                    0x200002a6   Section       42  monctrl.o(.data)
    u16NtcFault                              0x200002a6   Data           2  monctrl.o(.data)
    u8RemoteOnDlyCnt                         0x200002a8   Data           1  monctrl.o(.data)
    u16VinUvThrHigh                          0x200002aa   Data           2  monctrl.o(.data)
    u16VinUvThrLow                           0x200002ac   Data           2  monctrl.o(.data)
    u16VinOvThrHigh                          0x200002ae   Data           2  monctrl.o(.data)
    u16VinOvThrLow                           0x200002b0   Data           2  monctrl.o(.data)
    u16VinDropOutHigh                        0x200002b2   Data           2  monctrl.o(.data)
    u16VinDropOutLow                         0x200002b4   Data           2  monctrl.o(.data)
    u16VinUvwThr                             0x200002b6   Data           2  monctrl.o(.data)
    u16VinOcwThr                             0x200002b8   Data           2  monctrl.o(.data)
    u16VinUvCnt                              0x200002ba   Data           2  monctrl.o(.data)
    u16VinOvCnt                              0x200002bc   Data           2  monctrl.o(.data)
    u16VinUvwCnt                             0x200002be   Data           2  monctrl.o(.data)
    u16VinTypeAOld                           0x200002c0   Data           2  monctrl.o(.data)
    u16VinOcwCnt                             0x200002c2   Data           2  monctrl.o(.data)
    u8IsAcOn2Off                             0x200002c4   Data           1  monctrl.o(.data)
    u8IsVinUvDataSave                        0x200002c5   Data           1  monctrl.o(.data)
    u8IsVinOvDataSave                        0x200002c6   Data           1  monctrl.o(.data)
    u8VsbPreState                            0x200002c7   Data           1  monctrl.o(.data)
    u8VsbStartCnt                            0x200002c8   Data           2  monctrl.o(.data)
    u16AuxModeCnt                            0x200002ca   Data           2  monctrl.o(.data)
    u16DelayCheckReCycle                     0x200002cc   Data           2  monctrl.o(.data)
    ePsonState                               0x200002ce   Data           1  monctrl.o(.data)
    ePsCycle                                 0x200002cf   Data           1  monctrl.o(.data)
    .data                                    0x200002d0   Section       20  psuctrl.o(.data)
    mg_VsbState                              0x200002d0   Data           1  psuctrl.o(.data)
    mg_V1State                               0x200002d1   Data           1  psuctrl.o(.data)
    u16DelayTurnOn                           0x200002d2   Data           2  psuctrl.o(.data)
    bIsClearFault                            0x200002d4   Data           1  psuctrl.o(.data)
    u16DelaySetVsbOK                         0x200002d6   Data           2  psuctrl.o(.data)
    u16CheckFailCount                        0x200002d8   Data           2  psuctrl.o(.data)
    u16DelayVinNoOk                          0x200002da   Data           2  psuctrl.o(.data)
    u16DelayBulkCheck                        0x200002dc   Data           2  psuctrl.o(.data)
    u16DelaySetVmainOK                       0x200002de   Data           2  psuctrl.o(.data)
    u8DelayTurnoffVmain                      0x200002e0   Data           1  psuctrl.o(.data)
    u8IsPowerOkSet                           0x200002e1   Data           1  psuctrl.o(.data)
    u16TrimVsbOvpGainAct                     0x200002e2   Data           2  psuctrl.o(.data)
    .data                                    0x200002e4   Section        8  tempctrl.o(.data)
    mg_u16Ret                                0x200002e4   Data           2  tempctrl.o(.data)
    u8NtcIndex                               0x200002e6   Data           1  tempctrl.o(.data)
    u8NtcIndex                               0x200002e7   Data           1  tempctrl.o(.data)
    s16TmpMax                                0x200002e8   Data           2  tempctrl.o(.data)
    u8NtcFaultNbr                            0x200002ea   Data           1  tempctrl.o(.data)
    u8NtcIndex                               0x200002eb   Data           1  tempctrl.o(.data)
    .data                                    0x200002ec   Section        2  ledctrl.o(.data)
    mg_u8Count                               0x200002ec   Data           1  ledctrl.o(.data)
    mg_u8mg_u8Toggleboot                     0x200002ed   Data           1  ledctrl.o(.data)
    .data                                    0x200002f0   Section       20  timectrl.o(.data)
    mg_u16MinIn1SCnt                         0x200002f0   Data           2  timectrl.o(.data)
    mg_u8HalfHourInMinCnt                    0x200002f2   Data           1  timectrl.o(.data)
    mg_u8SaveMinutePos                       0x200002f3   Data           1  timectrl.o(.data)
    mg_u32MinutesUsed                        0x200002f4   Data           4  timectrl.o(.data)
    mg_u32MinutesUsedOld                     0x200002f8   Data           4  timectrl.o(.data)
    mg_RtcTrSecondUnit                       0x200002fc   Data           1  timectrl.o(.data)
    u8PowerOnRst                             0x200002fd   Data           1  timectrl.o(.data)
    u32PosLast                               0x20000300   Data           4  timectrl.o(.data)
    .data                                    0x20000304   Section        8  intcom.o(.data)
    mg_u32Com1MonCnt                         0x20000304   Data           4  intcom.o(.data)
    mg_u32Com2MonCnt                         0x20000308   Data           4  intcom.o(.data)
    .data                                    0x2000030c   Section       46  blabox.o(.data)
    mg_OverVoutFaultWriteEnable              0x2000030c   Data           1  blabox.o(.data)
    mg_UnderVoutFaultWriteEnable             0x2000030d   Data           1  blabox.o(.data)
    mg_IoutFaultWriteEnable                  0x2000030e   Data           1  blabox.o(.data)
    mg_IoutWarningWriteEnable                0x2000030f   Data           1  blabox.o(.data)
    mg_OverInputFaultWriteEnable             0x20000310   Data           1  blabox.o(.data)
    mg_UnderInputFaultWriteEnable            0x20000311   Data           1  blabox.o(.data)
    mg_InputLossWriteEnable                  0x20000312   Data           1  blabox.o(.data)
    mg_FanFaultWriteEnable                   0x20000313   Data           1  blabox.o(.data)
    mg_TempFaultWriteEnable                  0x20000314   Data           1  blabox.o(.data)
    mg_TempWarningWriteEnable                0x20000315   Data           1  blabox.o(.data)
    mg_GeneralFaultWriteEnable               0x20000316   Data           1  blabox.o(.data)
    mg_OverVsbFaultWriteEnable               0x20000317   Data           1  blabox.o(.data)
    mg_OverIsbFaultWriteEnable               0x20000318   Data           1  blabox.o(.data)
    mg_UnderVsbFaultWriteEnable              0x20000319   Data           1  blabox.o(.data)
    mg_OverBulkFaultWriteEnable              0x2000031a   Data           1  blabox.o(.data)
    mg_bEnableBlackbox                       0x2000031b   Data           1  blabox.o(.data)
    mg_u32RealTimeBaseIPMI                   0x2000031c   Data           4  blabox.o(.data)
    mg_u8Tmp                                 0x20000320   Data           1  blabox.o(.data)
    mg_wTmp                                  0x20000322   Data           2  blabox.o(.data)
    u16CntStartEnable                        0x20000326   Data           2  blabox.o(.data)
    u16CntWriteEEPROMProcess                 0x20000328   Data           2  blabox.o(.data)
    BLABOX_ePson                             0x2000032a   Data           1  blabox.o(.data)
    BLABOX_eACpower                          0x2000032b   Data           1  blabox.o(.data)
    u16Cnt100msecode                         0x2000032c   Data           2  blabox.o(.data)
    u8CntTime                                0x2000032e   Data           1  blabox.o(.data)
    u8IndexFlagOCmainWarning                 0x2000032f   Data           1  blabox.o(.data)
    u16CntFlagOCmainWarning                  0x20000330   Data           2  blabox.o(.data)
    u8IndexFlagFanWarning                    0x20000332   Data           1  blabox.o(.data)
    u16CntFlagFanWarning                     0x20000334   Data           2  blabox.o(.data)
    u8IndexFlagTempWarning                   0x20000336   Data           1  blabox.o(.data)
    u16CntFlagTempWarning                    0x20000338   Data           2  blabox.o(.data)
    .bss                                     0x2000033c   Section      110  buffer.o(.bss)
    mg_u32Buffer1ms                          0x2000033c   Data          36  buffer.o(.bss)
    mg_u16Means1ms                           0x20000360   Data          18  buffer.o(.bss)
    mg_u32Buffer10ms                         0x20000374   Data          36  buffer.o(.bss)
    mg_u16Means10ms                          0x20000398   Data          18  buffer.o(.bss)
    .bss                                     0x200003ac   Section     1598  rte.o(.bss)
    .bss                                     0x200009ea   Section       10  cali.o(.bss)
    mg_u8DataBuf                             0x200009ea   Data          10  cali.o(.bss)
    .bss                                     0x200009f4   Section      280  mem.o(.bss)
    mg_au8DataBase                           0x200009f4   Data         280  mem.o(.bss)
    .bss                                     0x20000b0c   Section      552  uartprt.o(.bss)
    mg_uUartPrtData                          0x20000b0c   Data          40  uartprt.o(.bss)
    mg_au8UartRxBuf                          0x20000c34   Data         256  uartprt.o(.bss)
    .bss                                     0x20000d34   Section      758  pmbus.o(.bss)
    mg_sP0SmbMask                            0x20000d34   Data          10  pmbus.o(.bss)
    mg_sP1SmbMask                            0x20000d3e   Data          10  pmbus.o(.bss)
    mg_sSmbMask                              0x20000d48   Data          12  pmbus.o(.bss)
    mg_au8DebugRegBuf                        0x20000d54   Data         256  pmbus.o(.bss)
    .bss                                     0x2000102a   Section       28  fanctrl.o(.bss)
    mg_sFan                                  0x2000102a   Data          28  fanctrl.o(.bss)
    .bss                                     0x20001046   Section       50  monctrl.o(.bss)
    .bss                                     0x20001078   Section      170  tempctrl.o(.bss)
    mg_sNtc                                  0x20001078   Data          80  tempctrl.o(.bss)
    mg_sTemp                                 0x200010c8   Data          90  tempctrl.o(.bss)
    .bss                                     0x20001122   Section       48  blabox.o(.bss)
    mg_au8BuffWriteToEmem                    0x20001122   Data          48  blabox.o(.bss)
    STACK                                    0x20001158   Section     1024  startup_stm32f0xx.o(STACK)

    Global Symbols

    Symbol Name                              Value     Ov Type        Size  Object(Section)

    BuildAttributes$$THM_ISAv3M$S$PE$A:L22$X:L11$S22$IEEE1$IW$USESV6$~STKCKD$USESV7$~SHL$OTIME$ROPI$EBA8$MICROLIB$REQ8$PRES8$EABIv2 0x00000000   Number         0  anon$$obj.o ABSOLUTE
    __ARM_use_no_argv                        0x00000000   Number         0  main.o ABSOLUTE
    __cpp_initialize__aeabi_                  - Undefined Weak Reference
    __cxa_finalize                            - Undefined Weak Reference
    _clock_init                               - Undefined Weak Reference
    _microlib_exit                            - Undefined Weak Reference
    __Vectors_Size                           0x000000c0   Number         0  startup_stm32f0xx.o ABSOLUTE
    Reset_Handle_Point                       0x08000000   Data           8  flash.o(.ARM.__AT_0x08000000)
    u8BootLoaderRev                          0x08004000   Data          16  flash.o(.ARM.__AT_0x08004000)
    __Vectors                                0x08004010   Data           4  startup_stm32f0xx.o(RESET)
    __Vectors_End                            0x080040d0   Data           0  startup_stm32f0xx.o(RESET)
    __main                                   0x080040d1   Thumb Code     0  entry.o(.ARM.Collect$$$$00000000)
    _main_stk                                0x080040d1   Thumb Code     0  entry2.o(.ARM.Collect$$$$00000001)
    _main_scatterload                        0x080040d5   Thumb Code     0  entry5.o(.ARM.Collect$$$$00000004)
    __main_after_scatterload                 0x080040d9   Thumb Code     0  entry5.o(.ARM.Collect$$$$00000004)
    _main_clock                              0x080040d9   Thumb Code     0  entry7b.o(.ARM.Collect$$$$00000008)
    _main_cpp_init                           0x080040d9   Thumb Code     0  entry8b.o(.ARM.Collect$$$$0000000A)
    _main_init                               0x080040d9   Thumb Code     0  entry9a.o(.ARM.Collect$$$$0000000B)
    __rt_final_cpp                           0x080040e1   Thumb Code     0  entry10a.o(.ARM.Collect$$$$0000000D)
    __rt_final_exit                          0x080040e1   Thumb Code     0  entry11a.o(.ARM.Collect$$$$0000000F)
    Reset_Handler                            0x080040e5   Thumb Code     8  startup_stm32f0xx.o(.text)
    NMI_Handler                              0x080040ed   Thumb Code     2  startup_stm32f0xx.o(.text)
    HardFault_Handler                        0x080040ef   Thumb Code     2  startup_stm32f0xx.o(.text)
    SVC_Handler                              0x080040f1   Thumb Code     2  startup_stm32f0xx.o(.text)
    PendSV_Handler                           0x080040f3   Thumb Code     2  startup_stm32f0xx.o(.text)
    SysTick_Handler                          0x080040f5   Thumb Code     2  startup_stm32f0xx.o(.text)
    ADC1_COMP_IRQHandler                     0x080040f7   Thumb Code     0  startup_stm32f0xx.o(.text)
    CEC_IRQHandler                           0x080040f7   Thumb Code     0  startup_stm32f0xx.o(.text)
    DMA1_Channel1_IRQHandler                 0x080040f7   Thumb Code     0  startup_stm32f0xx.o(.text)
    DMA1_Channel2_3_IRQHandler               0x080040f7   Thumb Code     0  startup_stm32f0xx.o(.text)
    DMA1_Channel4_5_IRQHandler               0x080040f7   Thumb Code     0  startup_stm32f0xx.o(.text)
    EXTI0_1_IRQHandler                       0x080040f7   Thumb Code     0  startup_stm32f0xx.o(.text)
    EXTI2_3_IRQHandler                       0x080040f7   Thumb Code     0  startup_stm32f0xx.o(.text)
    EXTI4_15_IRQHandler                      0x080040f7   Thumb Code     0  startup_stm32f0xx.o(.text)
    FLASH_IRQHandler                         0x080040f7   Thumb Code     0  startup_stm32f0xx.o(.text)
    I2C2_IRQHandler                          0x080040f7   Thumb Code     0  startup_stm32f0xx.o(.text)
    PVD_IRQHandler                           0x080040f7   Thumb Code     0  startup_stm32f0xx.o(.text)
    RCC_IRQHandler                           0x080040f7   Thumb Code     0  startup_stm32f0xx.o(.text)
    RTC_IRQHandler                           0x080040f7   Thumb Code     0  startup_stm32f0xx.o(.text)
    SPI1_IRQHandler                          0x080040f7   Thumb Code     0  startup_stm32f0xx.o(.text)
    SPI2_IRQHandler                          0x080040f7   Thumb Code     0  startup_stm32f0xx.o(.text)
    TIM14_IRQHandler                         0x080040f7   Thumb Code     0  startup_stm32f0xx.o(.text)
    TIM15_IRQHandler                         0x080040f7   Thumb Code     0  startup_stm32f0xx.o(.text)
    TIM16_IRQHandler                         0x080040f7   Thumb Code     0  startup_stm32f0xx.o(.text)
    TIM17_IRQHandler                         0x080040f7   Thumb Code     0  startup_stm32f0xx.o(.text)
    TIM1_BRK_UP_TRG_COM_IRQHandler           0x080040f7   Thumb Code     0  startup_stm32f0xx.o(.text)
    TIM1_CC_IRQHandler                       0x080040f7   Thumb Code     0  startup_stm32f0xx.o(.text)
    TIM2_IRQHandler                          0x080040f7   Thumb Code     0  startup_stm32f0xx.o(.text)
    TIM3_IRQHandler                          0x080040f7   Thumb Code     0  startup_stm32f0xx.o(.text)
    TIM6_DAC_IRQHandler                      0x080040f7   Thumb Code     0  startup_stm32f0xx.o(.text)
    TS_IRQHandler                            0x080040f7   Thumb Code     0  startup_stm32f0xx.o(.text)
    WWDG_IRQHandler                          0x080040f7   Thumb Code     0  startup_stm32f0xx.o(.text)
    __aeabi_uidiv                            0x08004101   Thumb Code     0  uidiv.o(.text)
    __aeabi_uidivmod                         0x08004101   Thumb Code    44  uidiv.o(.text)
    __aeabi_idiv                             0x0800412d   Thumb Code     0  idiv.o(.text)
    __aeabi_idivmod                          0x0800412d   Thumb Code    40  idiv.o(.text)
    __scatterload                            0x08004155   Thumb Code    28  init.o(.text)
    __scatterload_rt2                        0x08004155   Thumb Code     0  init.o(.text)
    __decompress                             0x08004179   Thumb Code     0  __dczerorl2.o(.text)
    __decompress1                            0x08004179   Thumb Code    86  __dczerorl2.o(.text)
    ADC_ChannelConfig                        0x080041cf   Thumb Code    24  stdperiphdriver.o(i.ADC_ChannelConfig)
    ADC_Cmd                                  0x080041e7   Thumb Code    24  stdperiphdriver.o(i.ADC_Cmd)
    ADC_DMACmd                               0x080041ff   Thumb Code    24  stdperiphdriver.o(i.ADC_DMACmd)
    ADC_DMARequestModeConfig                 0x08004217   Thumb Code    16  stdperiphdriver.o(i.ADC_DMARequestModeConfig)
    ADC_DeInit                               0x08004229   Thumb Code    28  stdperiphdriver.o(i.ADC_DeInit)
    ADC_GetCalibrationFactor                 0x08004249   Thumb Code    60  stdperiphdriver.o(i.ADC_GetCalibrationFactor)
    ADC_GetFlagStatus                        0x08004285   Thumb Code    48  stdperiphdriver.o(i.ADC_GetFlagStatus)
    ADC_Init                                 0x080042b5   Thumb Code    40  stdperiphdriver.o(i.ADC_Init)
    ADC_StartOfConversion                    0x080042e1   Thumb Code    10  stdperiphdriver.o(i.ADC_StartOfConversion)
    ADC_StructInit                           0x080042eb   Thumb Code    16  stdperiphdriver.o(i.ADC_StructInit)
    ADC_vInit                                0x080042fd   Thumb Code   210  adc.o(i.ADC_vInit)
    ADC_vReadRaw                             0x080043e5   Thumb Code    10  adc.o(i.ADC_vReadRaw)
    BLABOX_vClearFault                       0x08004599   Thumb Code    48  blabox.o(i.BLABOX_vClearFault)
    BLABOX_vClearWarning                     0x080045f5   Thumb Code   188  blabox.o(i.BLABOX_vClearWarning)
    BLABOX_vCountRealTimeClockDataSystemBlackbox 0x080046d5   Thumb Code    32  blabox.o(i.BLABOX_vCountRealTimeClockDataSystemBlackbox)
    BLABOX_vInit                             0x080046fd   Thumb Code   100  blabox.o(i.BLABOX_vInit)
    BLABOX_vMFR_CheckACBlackBox              0x080047a5   Thumb Code    68  blabox.o(i.BLABOX_vMFR_CheckACBlackBox)
    BLABOX_vMFR_CheckPSONBlackBox            0x080047f1   Thumb Code    68  blabox.o(i.BLABOX_vMFR_CheckPSONBlackBox)
    BLABOX_vMFR_ClearBlackBox                0x0800483d   Thumb Code    88  blabox.o(i.BLABOX_vMFR_ClearBlackBox)
    BLABOX_vMFR_SystemBlackBox               0x08004899   Thumb Code    72  blabox.o(i.BLABOX_vMFR_SystemBlackBox)
    BLABOX_vMFR_TimePSONBlackBox             0x080048e5   Thumb Code   132  blabox.o(i.BLABOX_vMFR_TimePSONBlackBox)
    BLABOX_vProcessBlackbox                  0x08004975   Thumb Code  1674  blabox.o(i.BLABOX_vProcessBlackbox)
    BLABOX_vSetEnableBlackbox                0x0800502d   Thumb Code    26  blabox.o(i.BLABOX_vSetEnableBlackbox)
    BLABOX_vSetRealTimeClockDataSystemBlackbox 0x0800504d   Thumb Code     6  blabox.o(i.BLABOX_vSetRealTimeClockDataSystemBlackbox)
    BUFFER_SCB_vInit                         0x08005059   Thumb Code    54  buffer.o(i.BUFFER_SCB_vInit)
    BUFFER_SCB_vLoop10msTask                 0x080050a1   Thumb Code   106  buffer.o(i.BUFFER_SCB_vLoop10msTask)
    BUFFER_SCB_vLoop1msTask                  0x0800511d   Thumb Code   102  buffer.o(i.BUFFER_SCB_vLoop1msTask)
    BUFFER_u16GetMean10ms                    0x08005229   Thumb Code    26  buffer.o(i.BUFFER_u16GetMean10ms)
    BUFFER_u16GetMean1ms                     0x08005249   Thumb Code    26  buffer.o(i.BUFFER_u16GetMean1ms)
    CALI_vCalcCaliPara                       0x08005295   Thumb Code   156  cali.o(i.CALI_vCalcCaliPara)
    CALI_vCaliFast                           0x08005349   Thumb Code   114  cali.o(i.CALI_vCaliFast)
    CALI_vCaliHandler                        0x080053d5   Thumb Code   182  cali.o(i.CALI_vCaliHandler)
    CALI_vCalibrateIShare                    0x08005499   Thumb Code    78  cali.o(i.CALI_vCalibrateIShare)
    CALI_vCalibrateV1                        0x080054f5   Thumb Code     8  cali.o(i.CALI_vCalibrateV1)
    CALI_vInit                               0x080054fd   Thumb Code   104  cali.o(i.CALI_vInit)
    CLOCK_vInit                              0x08005569   Thumb Code     8  clock.o(i.CLOCK_vInit)
    CRC_u16GetCrc16                          0x08005571   Thumb Code    26  crc.o(i.CRC_u16GetCrc16)
    CRC_u8GetCrc8                            0x08005591   Thumb Code    14  crc.o(i.CRC_u8GetCrc8)
    CRC_vInit                                0x080055a5   Thumb Code     2  crc.o(i.CRC_vInit)
    DMA_Cmd                                  0x080055a9   Thumb Code    24  stdperiphdriver.o(i.DMA_Cmd)
    DMA_DeInit                               0x080055c5   Thumb Code   342  stdperiphdriver.o(i.DMA_DeInit)
    DMA_Init                                 0x08005729   Thumb Code    58  stdperiphdriver.o(i.DMA_Init)
    EEPROM_u32ReadBuffer                     0x08005769   Thumb Code   714  eeprom.o(i.EEPROM_u32ReadBuffer)
    EEPROM_u32WaitEepromStandbyState         0x08005a41   Thumb Code   110  eeprom.o(i.EEPROM_u32WaitEepromStandbyState)
    EEPROM_u32WriteBuffer                    0x08005abd   Thumb Code   590  eeprom.o(i.EEPROM_u32WriteBuffer)
    EEPROM_u32WritePage                      0x08005d15   Thumb Code   310  eeprom.o(i.EEPROM_u32WritePage)
    EEPROM_vInit                             0x08005e59   Thumb Code     8  eeprom.o(i.EEPROM_vInit)
    FANCTRL_u16ReadFanCtrlDuty               0x08006051   Thumb Code    22  fanctrl.o(i.FANCTRL_u16ReadFanCtrlDuty)
    FANCTRL_u16ReadFanSpeed                  0x08006071   Thumb Code    22  fanctrl.o(i.FANCTRL_u16ReadFanSpeed)
    FANCTRL_u8ReadFanBitFail                 0x08006091   Thumb Code    26  fanctrl.o(i.FANCTRL_u8ReadFanBitFail)
    FANCTRL_u8ReadFanBitWarn                 0x080060b1   Thumb Code    26  fanctrl.o(i.FANCTRL_u8ReadFanBitWarn)
    FANCTRL_u8WriteFanBitFail                0x080060d1   Thumb Code    40  fanctrl.o(i.FANCTRL_u8WriteFanBitFail)
    FANCTRL_u8WriteFanBitWarn                0x080060fd   Thumb Code    38  fanctrl.o(i.FANCTRL_u8WriteFanBitWarn)
    FANCTRL_vFanCtrl                         0x08006129   Thumb Code   110  fanctrl.o(i.FANCTRL_vFanCtrl)
    FANCTRL_vFanSpeedCalc                    0x080061b1   Thumb Code   330  fanctrl.o(i.FANCTRL_vFanSpeedCalc)
    FANCTRL_vInit                            0x08006321   Thumb Code   154  fanctrl.o(i.FANCTRL_vInit)
    FANCTRL_vSetFanBlockTest                 0x080063c1   Thumb Code     6  fanctrl.o(i.FANCTRL_vSetFanBlockTest)
    FANCTRL_vSysSetFanCtrlDuty               0x080063cd   Thumb Code    16  fanctrl.o(i.FANCTRL_vSysSetFanCtrlDuty)
    FLASH_ErasePage                          0x080063e1   Thumb Code    72  stdperiphdriver.o(i.FLASH_ErasePage)
    FLASH_GetStatus                          0x0800642d   Thumb Code    54  stdperiphdriver.o(i.FLASH_GetStatus)
    FLASH_Lock                               0x08006469   Thumb Code    14  stdperiphdriver.o(i.FLASH_Lock)
    FLASH_ProgramHalfWord                    0x0800647d   Thumb Code    62  stdperiphdriver.o(i.FLASH_ProgramHalfWord)
    FLASH_ProgramWord                        0x080064c1   Thumb Code   104  stdperiphdriver.o(i.FLASH_ProgramWord)
    FLASH_Unlock                             0x0800652d   Thumb Code    24  stdperiphdriver.o(i.FLASH_Unlock)
    FLASH_WaitForLastOperation               0x08006551   Thumb Code    40  stdperiphdriver.o(i.FLASH_WaitForLastOperation)
    FLASH_u32BootloaderFwVer                 0x08006579   Thumb Code    10  flash.o(i.FLASH_u32BootloaderFwVer)
    FLASH_u32ReadWordFlash                   0x08006589   Thumb Code    24  flash.o(i.FLASH_u32ReadWordFlash)
    FLASH_u8ErasePageFlash                   0x080065a1   Thumb Code    34  flash.o(i.FLASH_u8ErasePageFlash)
    FLASH_u8WriteHalfWordFlash               0x080065c3   Thumb Code    40  flash.o(i.FLASH_u8WriteHalfWordFlash)
    FLASH_u8WriteWordFlash                   0x080065eb   Thumb Code    40  flash.o(i.FLASH_u8WriteWordFlash)
    FLASH_vInit                              0x08006613   Thumb Code     2  flash.o(i.FLASH_vInit)
    FLASH_vRemapVectorTable                  0x08006615   Thumb Code    50  flash.o(i.FLASH_vRemapVectorTable)
    GPIO_Init                                0x08006655   Thumb Code   144  stdperiphdriver.o(i.GPIO_Init)
    GPIO_PinAFConfig                         0x080066e5   Thumb Code    68  stdperiphdriver.o(i.GPIO_PinAFConfig)
    GPIO_ReadInputDataBit                    0x08006729   Thumb Code    20  stdperiphdriver.o(i.GPIO_ReadInputDataBit)
    HWIO_vCheckBootLoaderExistFlg            0x08006849   Thumb Code     2  hwio.o(i.HWIO_vCheckBootLoaderExistFlg)
    HWIO_vInit                               0x0800684b   Thumb Code     2  hwio.o(i.HWIO_vInit)
    HWIO_vReadGpioPort                       0x0800684d   Thumb Code   496  hwio.o(i.HWIO_vReadGpioPort)
    HWIO_vSetGpioPort                        0x08006a69   Thumb Code   346  hwio.o(i.HWIO_vSetGpioPort)
    I2C1_IRQHandler                          0x08006bc9   Thumb Code   646  i2cprt.o(i.I2C1_IRQHandler)
    I2CPRT_vInit                             0x08006f75   Thumb Code   100  i2cprt.o(i.I2CPRT_vInit)
    I2CPRT_vProcessReceiveData               0x08006fe9   Thumb Code   266  i2cprt.o(i.I2CPRT_vProcessReceiveData)
    I2C_ClearFlag                            0x0800710d   Thumb Code     4  stdperiphdriver.o(i.I2C_ClearFlag)
    I2C_ClearITPendingBit                    0x08007111   Thumb Code     4  stdperiphdriver.o(i.I2C_ClearITPendingBit)
    I2C_Cmd                                  0x08007115   Thumb Code    24  stdperiphdriver.o(i.I2C_Cmd)
    I2C_GenerateSTART                        0x0800712d   Thumb Code    28  stdperiphdriver.o(i.I2C_GenerateSTART)
    I2C_GetFlagStatus                        0x08007149   Thumb Code    28  stdperiphdriver.o(i.I2C_GetFlagStatus)
    I2C_GetTransferDirection                 0x08007165   Thumb Code    30  stdperiphdriver.o(i.I2C_GetTransferDirection)
    I2C_ITConfig                             0x08007183   Thumb Code    20  stdperiphdriver.o(i.I2C_ITConfig)
    I2C_Init                                 0x08007199   Thumb Code    98  stdperiphdriver.o(i.I2C_Init)
    I2C_ReceiveData                          0x08007205   Thumb Code     8  stdperiphdriver.o(i.I2C_ReceiveData)
    I2C_SendData                             0x0800720d   Thumb Code     4  stdperiphdriver.o(i.I2C_SendData)
    I2C_SoftwareResetCmd                     0x08007211   Thumb Code    20  stdperiphdriver.o(i.I2C_SoftwareResetCmd)
    I2C_StretchClockCmd                      0x08007225   Thumb Code    28  stdperiphdriver.o(i.I2C_StretchClockCmd)
    I2C_TransferHandling                     0x08007241   Thumb Code    38  stdperiphdriver.o(i.I2C_TransferHandling)
    I2C_vClearTimeoutCnt                     0x0800726d   Thumb Code    16  i2c.o(i.I2C_vClearTimeoutCnt)
    I2C_vDisableNvicInt                      0x08007285   Thumb Code    46  i2c.o(i.I2C_vDisableNvicInt)
    I2C_vEnableNvicInt                       0x080072b9   Thumb Code    46  i2c.o(i.I2C_vEnableNvicInt)
    I2C_vI2cTimeOutHandler                   0x080072ed   Thumb Code   258  i2c.o(i.I2C_vI2cTimeOutHandler)
    I2C_vInit                                0x08007405   Thumb Code   104  i2c.o(i.I2C_vInit)
    INTCOM_vCom1RxData                       0x0800755d   Thumb Code   948  intcom.o(i.INTCOM_vCom1RxData)
    INTCOM_vCom1TxData                       0x08007931   Thumb Code   240  intcom.o(i.INTCOM_vCom1TxData)
    INTCOM_vCom2RxData                       0x08007a35   Thumb Code   842  intcom.o(i.INTCOM_vCom2RxData)
    INTCOM_vCom2TxData                       0x08007da1   Thumb Code   382  intcom.o(i.INTCOM_vCom2TxData)
    INTCOM_vInit                             0x08007f4d   Thumb Code    14  intcom.o(i.INTCOM_vInit)
    INTCOM_vTmOutMon                         0x08007f65   Thumb Code   102  intcom.o(i.INTCOM_vTmOutMon)
    LEDCTRL_vInit                            0x0800803d   Thumb Code     2  ledctrl.o(i.LEDCTRL_vInit)
    LEDCTRL_vLedControl                      0x08008041   Thumb Code   360  ledctrl.o(i.LEDCTRL_vLedControl)
    MEM_u16Getlenght                         0x08008201   Thumb Code    10  mem.o(i.MEM_u16Getlenght)
    MEM_vInit                                0x08008211   Thumb Code    20  mem.o(i.MEM_vInit)
    MEM_vRead2EEPORM                         0x08008225   Thumb Code    42  mem.o(i.MEM_vRead2EEPORM)
    MEM_vReadFromMem                         0x08008251   Thumb Code    30  mem.o(i.MEM_vReadFromMem)
    MEM_vSaveData                            0x08008275   Thumb Code    84  mem.o(i.MEM_vSaveData)
    MEM_vWrite2EEPORM                        0x080082cd   Thumb Code    42  mem.o(i.MEM_vWrite2EEPORM)
    MEM_vWriteToMem                          0x080082f9   Thumb Code    26  mem.o(i.MEM_vWriteToMem)
    MONCTRL_vAxuModeDetect                   0x080085c5   Thumb Code   126  monctrl.o(i.MONCTRL_vAxuModeDetect)
    MONCTRL_vCheckStatusReset                0x08008655   Thumb Code   376  monctrl.o(i.MONCTRL_vCheckStatusReset)
    MONCTRL_vCheckVsbOvp                     0x080087ed   Thumb Code    94  monctrl.o(i.MONCTRL_vCheckVsbOvp)
    MONCTRL_vInit                            0x08008855   Thumb Code    28  monctrl.o(i.MONCTRL_vInit)
    MONCTRL_vUpdateStatus                    0x08008875   Thumb Code   282  monctrl.o(i.MONCTRL_vUpdateStatus)
    MONCTRL_vVin                             0x080089b5   Thumb Code   794  monctrl.o(i.MONCTRL_vVin)
    MONCTRL_vVsbOutput                       0x08008d29   Thumb Code   722  monctrl.o(i.MONCTRL_vVsbOutput)
    NVIC_Init                                0x08009019   Thumb Code   106  stdperiphdriver.o(i.NVIC_Init)
    PMBUS_vCheckBootMode                     0x080090fd   Thumb Code   332  pmbus.o(i.PMBUS_vCheckBootMode)
    PMBUS_vClearAllFault                     0x0800926d   Thumb Code    16  pmbus.o(i.PMBUS_vClearAllFault)
    PMBUS_vClearPowerOffFault                0x08009281   Thumb Code    54  pmbus.o(i.PMBUS_vClearPowerOffFault)
    PMBUS_vCmdCheck                          0x080092bd   Thumb Code   786  pmbus.o(i.PMBUS_vCmdCheck)
    PMBUS_vCopyDebugData                     0x0800960d   Thumb Code   386  pmbus.o(i.PMBUS_vCopyDebugData)
    PMBUS_vCopyPecAndOringStatus             0x080097c5   Thumb Code     2  pmbus.o(i.PMBUS_vCopyPecAndOringStatus)
    PMBUS_vCopySensorData                    0x080097c9   Thumb Code  1570  pmbus.o(i.PMBUS_vCopySensorData)
    PMBUS_vCopyStatusData                    0x08009e05   Thumb Code  1036  pmbus.o(i.PMBUS_vCopyStatusData)
    PMBUS_vInit                              0x0800a211   Thumb Code   192  pmbus.o(i.PMBUS_vInit)
    PMBUS_vSaveBlackBoxData2Buff             0x0800a305   Thumb Code   104  pmbus.o(i.PMBUS_vSaveBlackBoxData2Buff)
    PMBUS_vSaveBlackBoxVinData2Buff          0x0800a371   Thumb Code    32  pmbus.o(i.PMBUS_vSaveBlackBoxVinData2Buff)
    PMBUS_vSendData                          0x0800a395   Thumb Code  3848  pmbus.o(i.PMBUS_vSendData)
    PORT_u8ReadGpioPin                       0x0800b2dd   Thumb Code    42  port.o(i.PORT_u8ReadGpioPin)
    PORT_vInit                               0x0800b30d   Thumb Code   228  port.o(i.PORT_vInit)
    PORT_vSetGpioMode                        0x0800b3f5   Thumb Code   148  port.o(i.PORT_vSetGpioMode)
    PORT_vSetGpioPin                         0x0800b491   Thumb Code    54  port.o(i.PORT_vSetGpioPin)
    PORT_vSetGpioPinToggle                   0x0800b4cd   Thumb Code    36  port.o(i.PORT_vSetGpioPinToggle)
    PSUCTRL_vInit                            0x0800b6b1   Thumb Code    12  psuctrl.o(i.PSUCTRL_vInit)
    PSUCTRL_vTrim                            0x0800b6c5   Thumb Code   488  psuctrl.o(i.PSUCTRL_vTrim)
    PSUCTRL_vV1Out                           0x0800b8d9   Thumb Code   462  psuctrl.o(i.PSUCTRL_vV1Out)
    PSUCTRL_vVsbOut                          0x0800bac9   Thumb Code   440  psuctrl.o(i.PSUCTRL_vVsbOut)
    PWM_vInit                                0x0800bcad   Thumb Code   346  pwm.o(i.PWM_vInit)
    PWM_vPwmDutyUpdate                       0x0800be0d   Thumb Code   136  pwm.o(i.PWM_vPwmDutyUpdate)
    PWR_BackupAccessCmd                      0x0800be99   Thumb Code    36  stdperiphdriver.o(i.PWR_BackupAccessCmd)
    RCC_AHBPeriphClockCmd                    0x0800bec1   Thumb Code    28  stdperiphdriver.o(i.RCC_AHBPeriphClockCmd)
    RCC_APB1PeriphClockCmd                   0x0800bee1   Thumb Code    28  stdperiphdriver.o(i.RCC_APB1PeriphClockCmd)
    RCC_APB2PeriphClockCmd                   0x0800bf01   Thumb Code    28  stdperiphdriver.o(i.RCC_APB2PeriphClockCmd)
    RCC_APB2PeriphResetCmd                   0x0800bf21   Thumb Code    28  stdperiphdriver.o(i.RCC_APB2PeriphResetCmd)
    RCC_BackupResetCmd                       0x0800bf41   Thumb Code    36  stdperiphdriver.o(i.RCC_BackupResetCmd)
    RCC_GetClocksFreq                        0x0800bf69   Thumb Code   554  stdperiphdriver.o(i.RCC_GetClocksFreq)
    RCC_RTCCLKCmd                            0x0800c1b5   Thumb Code    36  stdperiphdriver.o(i.RCC_RTCCLKCmd)
    RCC_RTCCLKConfig                         0x0800c1dd   Thumb Code    12  stdperiphdriver.o(i.RCC_RTCCLKConfig)
    RTC_EnterInitMode                        0x0800c1ed   Thumb Code    82  stdperiphdriver.o(i.RTC_EnterInitMode)
    RTC_ExitInitMode                         0x0800c245   Thumb Code    14  stdperiphdriver.o(i.RTC_ExitInitMode)
    RTC_Init                                 0x0800c259   Thumb Code    84  stdperiphdriver.o(i.RTC_Init)
    RTC_WaitForSynchro                       0x0800c2b1   Thumb Code   104  stdperiphdriver.o(i.RTC_WaitForSynchro)
    RTC_vInit                                0x0800c31d   Thumb Code    98  rtc.o(i.RTC_vInit)
    RTE_vInit                                0x0800c38d   Thumb Code   228  rte.o(i.RTE_vInit)
    SCHM_vInit                               0x0800c50d   Thumb Code   260  schm.o(i.SCHM_vInit)
    SCHM_vSchmIdleLoop                       0x0800c611   Thumb Code    24  schm.o(i.SCHM_vSchmIdleLoop)
    SCHM_vSchmRoutine                        0x0800c629   Thumb Code   614  schm.o(i.SCHM_vSchmRoutine)
    SYSCFG_MemoryRemapConfig                 0x0800c895   Thumb Code    24  stdperiphdriver.o(i.SYSCFG_MemoryRemapConfig)
    S_DAM_bRead                              0x0800c901   Thumb Code   276  s_dam.o(i.S_DAM_bRead)
    S_DAM_bWrite                             0x0800ca1d   Thumb Code   284  s_dam.o(i.S_DAM_bWrite)
    S_DAM_u32GetLastRecordId                 0x0800cb59   Thumb Code    76  s_dam.o(i.S_DAM_u32GetLastRecordId)
    SystemInit                               0x0800cbad   Thumb Code   110  clock.o(i.SystemInit)
    TEMPCTRL_s16ReadTempValue                0x0800cc99   Thumb Code    16  tempctrl.o(i.TEMPCTRL_s16ReadTempValue)
    TEMPCTRL_u16ReadAdcAvgValue              0x0800ccad   Thumb Code    12  tempctrl.o(i.TEMPCTRL_u16ReadAdcAvgValue)
    TEMPCTRL_vInit                           0x0800ccbd   Thumb Code   166  tempctrl.o(i.TEMPCTRL_vInit)
    TEMPCTRL_vLookUpNtcTemperature           0x0800cd75   Thumb Code   582  tempctrl.o(i.TEMPCTRL_vLookUpNtcTemperature)
    TEMPCTRL_vNtcTempMonitor                 0x0800cfe5   Thumb Code   636  tempctrl.o(i.TEMPCTRL_vNtcTempMonitor)
    TEMPCTRL_vNtcVoltAverage                 0x0800d279   Thumb Code   338  tempctrl.o(i.TEMPCTRL_vNtcVoltAverage)
    TIMECTRL_vInit                           0x0800d485   Thumb Code   314  timectrl.o(i.TIMECTRL_vInit)
    TIMECTRL_vSaveHoursUsed                  0x0800d5c9   Thumb Code   478  timectrl.o(i.TIMECTRL_vSaveHoursUsed)
    TIMER_u8GetUpdateFlg                     0x0800d7d9   Thumb Code    28  timer.o(i.TIMER_u8GetUpdateFlg)
    TIMER_vClearUpdateFlg                    0x0800d7f9   Thumb Code    28  timer.o(i.TIMER_vClearUpdateFlg)
    TIMER_vInit                              0x0800d819   Thumb Code   196  timer.o(i.TIMER_vInit)
    TIM_ClearFlag                            0x0800d8e1   Thumb Code     6  stdperiphdriver.o(i.TIM_ClearFlag)
    TIM_Cmd                                  0x0800d8e9   Thumb Code    24  stdperiphdriver.o(i.TIM_Cmd)
    TIM_CtrlPWMOutputs                       0x0800d905   Thumb Code    34  stdperiphdriver.o(i.TIM_CtrlPWMOutputs)
    TIM_GenerateEvent                        0x0800d927   Thumb Code     4  stdperiphdriver.o(i.TIM_GenerateEvent)
    TIM_GetFlagStatus                        0x0800d92b   Thumb Code    20  stdperiphdriver.o(i.TIM_GetFlagStatus)
    TIM_ITConfig                             0x0800d93f   Thumb Code    20  stdperiphdriver.o(i.TIM_ITConfig)
    TIM_OC1Init                              0x0800d955   Thumb Code   122  stdperiphdriver.o(i.TIM_OC1Init)
    TIM_OC1PreloadConfig                     0x0800d9e9   Thumb Code    20  stdperiphdriver.o(i.TIM_OC1PreloadConfig)
    TIM_OC2Init                              0x0800da01   Thumb Code   142  stdperiphdriver.o(i.TIM_OC2Init)
    TIM_OC2PreloadConfig                     0x0800daad   Thumb Code    20  stdperiphdriver.o(i.TIM_OC2PreloadConfig)
    TIM_OC3Init                              0x0800dac5   Thumb Code   124  stdperiphdriver.o(i.TIM_OC3Init)
    TIM_OC3PreloadConfig                     0x0800db5d   Thumb Code    20  stdperiphdriver.o(i.TIM_OC3PreloadConfig)
    TIM_OC4Init                              0x0800db75   Thumb Code    88  stdperiphdriver.o(i.TIM_OC4Init)
    TIM_OC4PreloadConfig                     0x0800dbe5   Thumb Code    20  stdperiphdriver.o(i.TIM_OC4PreloadConfig)
    TIM_SetCompare1                          0x0800dbfd   Thumb Code     4  stdperiphdriver.o(i.TIM_SetCompare1)
    TIM_SetCompare2                          0x0800dc01   Thumb Code     4  stdperiphdriver.o(i.TIM_SetCompare2)
    TIM_SetCompare3                          0x0800dc05   Thumb Code     4  stdperiphdriver.o(i.TIM_SetCompare3)
    TIM_SetCompare4                          0x0800dc09   Thumb Code     4  stdperiphdriver.o(i.TIM_SetCompare4)
    TIM_TimeBaseInit                         0x0800dc0d   Thumb Code    90  stdperiphdriver.o(i.TIM_TimeBaseInit)
    UARTPRT_vHandleRxData                    0x0800dc89   Thumb Code   368  uartprt.o(i.UARTPRT_vHandleRxData)
    UARTPRT_vHandleTxData                    0x0800de01   Thumb Code   578  uartprt.o(i.UARTPRT_vHandleTxData)
    UARTPRT_vInit                            0x0800e04d   Thumb Code   384  uartprt.o(i.UARTPRT_vInit)
    UARTPRT_vSetBootMode                     0x0800e1e9   Thumb Code    28  uartprt.o(i.UARTPRT_vSetBootMode)
    UARTPRT_vTmOutMon                        0x0800e209   Thumb Code   450  uartprt.o(i.UARTPRT_vTmOutMon)
    UARTPRT_vTxData                          0x0800e3d1   Thumb Code   412  uartprt.o(i.UARTPRT_vTxData)
    UARTPRT_vUsartIrqHandler                 0x0800e585   Thumb Code   350  uartprt.o(i.UARTPRT_vUsartIrqHandler)
    UART_u16UartReadBaudrate                 0x0800e6f1   Thumb Code    16  uart.o(i.UART_u16UartReadBaudrate)
    UART_u8UartReadRxReg                     0x0800e705   Thumb Code    18  uart.o(i.UART_u8UartReadRxReg)
    UART_u8UartReadTxEmptyFlg                0x0800e71d   Thumb Code    20  uart.o(i.UART_u8UartReadTxEmptyFlg)
    UART_vInit                               0x0800e735   Thumb Code   280  uart.o(i.UART_vInit)
    UART_vUartWriteTxReg                     0x0800e861   Thumb Code    14  uart.o(i.UART_vUartWriteTxReg)
    USART1_IRQHandler                        0x0800e875   Thumb Code    32  uart.o(i.USART1_IRQHandler)
    USART2_IRQHandler                        0x0800e8a1   Thumb Code    32  uart.o(i.USART2_IRQHandler)
    USART_ClearITPendingBit                  0x0800e8cd   Thumb Code    18  stdperiphdriver.o(i.USART_ClearITPendingBit)
    USART_Cmd                                0x0800e8df   Thumb Code    24  stdperiphdriver.o(i.USART_Cmd)
    USART_GetITStatus                        0x0800e8f7   Thumb Code    78  stdperiphdriver.o(i.USART_GetITStatus)
    USART_ITConfig                           0x0800e945   Thumb Code    66  stdperiphdriver.o(i.USART_ITConfig)
    USART_Init                               0x0800e989   Thumb Code   226  stdperiphdriver.o(i.USART_Init)
    __ARM_common_switch8                     0x0800ea81   Thumb Code    28  buffer.o(i.__ARM_common_switch8)
    __scatterload_copy                       0x0800ea9d   Thumb Code    14  handlers.o(i.__scatterload_copy)
    __scatterload_null                       0x0800eaab   Thumb Code     2  handlers.o(i.__scatterload_null)
    __scatterload_zeroinit                   0x0800eaad   Thumb Code    14  handlers.o(i.__scatterload_zeroinit)
    main                                     0x0800eabb   Thumb Code    30  main.o(i.main)
    vPMBus_HandleData                        0x080108a9   Thumb Code  2092  pmbus.o(i.vPMBus_HandleData)
    CRC_mg_au8CrcTable                       0x0801141c   Data         256  crc.o(.constdata)
    CRC_mg_au16crc16tab                      0x0801151c   Data         512  crc.o(.constdata)
    PMB_mg_au8I2cRxNumber                    0x08011864   Data         256  pmbus.o(.constdata)
    PMB_mg_au8I2cTxNumber                    0x08011964   Data         256  pmbus.o(.constdata)
    PMB_mg_au8ByteFormatP0                   0x08011a64   Data         256  pmbus.o(.constdata)
    PMB_mg_au8ByteFormatP1                   0x08011b64   Data         256  pmbus.o(.constdata)
    PMB_mg_au8_BOOT_FW_ID                    0x08011c64   Data          11  pmbus.o(.constdata)
    PMB_mg_au8_PROJECT_ID                    0x08011c6f   Data           1  pmbus.o(.constdata)
    TEMPCTRL_mg_au16NtcTable1                0x08011d64   Data         380  tempctrl.o(.constdata)
    Region$$Table$$Base                      0x08011ee0   Number         0  anon$$obj.o(Region$$Table)
    Region$$Table$$Limit                     0x08011f00   Number         0  anon$$obj.o(Region$$Table)
    VectorTable                              0x20000000   Data         192  flash.o(.ARM.__AT_0x20000000)
    mg_u16q12Adc1Buffer                      0x200000d4   Data           8  adc.o(.data)
    mg_u16q12Adc2Buffer                      0x200000dc   Data           8  adc.o(.data)
    mg_u32q12AdcScaleFactPhsA                0x200000e4   Data           4  adc.o(.data)
    mg_u32q12AdcScaleFactPhsB                0x200000e8   Data           4  adc.o(.data)
    mg_u32q12AdcScaleFactCurrIn              0x200000ec   Data           4  adc.o(.data)
    mg_u32q12AdcScaleFactVoltInL             0x200000f0   Data           4  adc.o(.data)
    mg_u32q12AdcScaleFactVoltInN             0x200000f4   Data           4  adc.o(.data)
    mg_u32q12AdcScaleFactVoltIn              0x200000f8   Data           4  adc.o(.data)
    mg_u32q12AdcScaleFactVoltBulk            0x200000fc   Data           4  adc.o(.data)
    mg_u32q12AdcScaleFactVoltRef3V3          0x20000100   Data           4  adc.o(.data)
    mg_u32q12AdcScaleFactVoltNtc1            0x20000104   Data           4  adc.o(.data)
    mg_u32q12AdcScaleFactVoltExt             0x20000108   Data           4  adc.o(.data)
    EEPROMAddress                            0x2000011c   Data           2  eeprom.o(.data)
    EEPROMTimeout                            0x20000120   Data           4  eeprom.o(.data)
    EEPROMDataNum                            0x20000124   Data           2  eeprom.o(.data)
    FLASH_mg_u32Offset                       0x20000128   Data           4  flash.o(.data)
    VectorAdd                                0x2000012c   Data           4  flash.o(.data)
    MUX_INPUT_SIGNAL                         0x20000134   Data           1  rte.o(.data)
    RTE_bPEC_Enable                          0x20000135   Data           1  rte.o(.data)
    RTE_u16Uart1TxDataNbr                    0x20000136   Data           2  rte.o(.data)
    RTE_u16Uart1RxDataNbr                    0x20000138   Data           2  rte.o(.data)
    RTE_u8Uart1TxBufUpdated                  0x2000013a   Data           1  rte.o(.data)
    RTE_u8Uart1RxNewFrame                    0x2000013b   Data           1  rte.o(.data)
    RTE_u8Uart1FrameTmoutFlg                 0x2000013c   Data           1  rte.o(.data)
    RTE_u8Uart1ByteTmoutFlg                  0x2000013d   Data           1  rte.o(.data)
    RTE_u8Uart1TxTmoutFlg                    0x2000013e   Data           1  rte.o(.data)
    RTE_u8Uart1BroadcastFlg                  0x2000013f   Data           1  rte.o(.data)
    RTE_u8Uart1RxCrc                         0x20000140   Data           1  rte.o(.data)
    RTE_uUart1Pri1VinAD                      0x20000142   Data           2  rte.o(.data)
    RTE_uUart1Pri2VinAD                      0x20000144   Data           2  rte.o(.data)
    RTE_uUart1Status                         0x20000146   Data           1  rte.o(.data)
    RTE_uPmbusOperation                      0x20000147   Data           1  rte.o(.data)
    RTE_u16Uart2TxDataNbr                    0x20000148   Data           2  rte.o(.data)
    RTE_u16Uart2RxDataNbr                    0x2000014a   Data           2  rte.o(.data)
    RTE_u8Uart2TxBufUpdated                  0x2000014c   Data           1  rte.o(.data)
    RTE_u8Uart2RxNewFrame                    0x2000014d   Data           1  rte.o(.data)
    RTE_u8Uart2FrameTmoutFlg                 0x2000014e   Data           1  rte.o(.data)
    RTE_u8Uart2ByteTmoutFlg                  0x2000014f   Data           1  rte.o(.data)
    RTE_u8Uart2TxTmoutFlg                    0x20000150   Data           1  rte.o(.data)
    RTE_u8Uart2BroadcastFlg                  0x20000151   Data           1  rte.o(.data)
    RTE_u8Uart2RxCrc                         0x20000152   Data           1  rte.o(.data)
    RTE_uUart2Status                         0x20000153   Data           1  rte.o(.data)
    RTE_uTempOtwStatus                       0x20000154   Data           2  rte.o(.data)
    RTE_uTempOtpStatus                       0x20000156   Data           2  rte.o(.data)
    RTE_uSensorFaultStatus                   0x20000158   Data           2  rte.o(.data)
    RTE_uTempStatus                          0x2000015a   Data           2  rte.o(.data)
    RTE_uDioInStatus                         0x2000015c   Data           2  rte.o(.data)
    RTE_uDioOutStatus                        0x2000015e   Data           2  rte.o(.data)
    RTE_uPsuCtrlStatus                       0x20000160   Data           2  rte.o(.data)
    RTE_uIntcom1Status                       0x20000162   Data           2  rte.o(.data)
    RTE_uIntcom2Status                       0x20000164   Data           2  rte.o(.data)
    RTE_uComToSecStatus                      0x20000166   Data           2  rte.o(.data)
    RTE_uComToPriStatus                      0x20000168   Data           2  rte.o(.data)
    RTE_uComStatus00                         0x2000016a   Data           2  rte.o(.data)
    RTE_uComStatus01                         0x2000016c   Data           2  rte.o(.data)
    RTE_uComStatus02                         0x2000016e   Data           2  rte.o(.data)
    RTE_u16TrimV1Gain                        0x20000170   Data           2  rte.o(.data)
    RTE_u16TrimV1GainOvp                     0x20000172   Data           2  rte.o(.data)
    RTE_u16TrimV1GainAct                     0x20000174   Data           2  rte.o(.data)
    RTE_u16TrimVsbGain                       0x20000176   Data           2  rte.o(.data)
    RTE_u16TrimVsbGainOvp                    0x20000178   Data           2  rte.o(.data)
    RTE_u16TrimVsbGainAct                    0x2000017a   Data           2  rte.o(.data)
    RTE_u16V1CurrentGain                     0x2000017c   Data           2  rte.o(.data)
    RTE_u16IShareGain                        0x2000017e   Data           2  rte.o(.data)
    RTE_u16IShareOfs                         0x20000180   Data           2  rte.o(.data)
    RTE_u16MonCtrlInputType                  0x20000182   Data           2  rte.o(.data)
    RTE_u32PmbusFwRevPri1                    0x20000184   Data           4  rte.o(.data)
    RTE_u32PmbusBootFwRevPri1                0x20000188   Data           4  rte.o(.data)
    RTE_u32PmbusFwRevSec1                    0x2000018c   Data           4  rte.o(.data)
    RTE_u32PmbusBootFwRevSec1                0x20000190   Data           4  rte.o(.data)
    RTE_u32PmbusFwRevPri1Old                 0x20000194   Data           4  rte.o(.data)
    RTE_u32PmbusBootFwRevPri1Old             0x20000198   Data           4  rte.o(.data)
    RTE_u32PmbusFwRevSec1Old                 0x2000019c   Data           4  rte.o(.data)
    RTE_u32PmbusBootFwRevSec1Old             0x200001a0   Data           4  rte.o(.data)
    RTE_u32PmbusFwRevCom                     0x200001a4   Data           4  rte.o(.data)
    RTE_u32PmbusBootFwRevCom                 0x200001a8   Data           4  rte.o(.data)
    RTE_u16ComToPriDebug                     0x200001ac   Data           2  rte.o(.data)
    RTE_u16ComToSecDebug                     0x200001ae   Data           2  rte.o(.data)
    RTE_sV1FaultFlag00                       0x200001b0   Data           2  rte.o(.data)
    RTE_sVsbFaultFlag00                      0x200001b2   Data           2  rte.o(.data)
    RTE_sVoutStateFlag                       0x200001b4   Data           2  rte.o(.data)
    RTE_sSysStateFlag00                      0x200001b6   Data           2  rte.o(.data)
    RTE_u161mAIinAvgAvgPri                   0x200001b8   Data           2  rte.o(.data)
    RTE_u16100mAPinAvgAvgPri                 0x200001ba   Data           2  rte.o(.data)
    RTE_u1610mVIntV1AvgAvgSec                0x200001bc   Data           2  rte.o(.data)
    RTE_u1610mVExtV1AvgAvgSec                0x200001be   Data           2  rte.o(.data)
    RTE_u1610mAIoutAvgAvgSec                 0x200001c0   Data           2  rte.o(.data)
    RTE_u16CaliIout                          0x200001c2   Data           2  rte.o(.data)
    RTE_u8PmbusCommand                       0x200001c4   Data           1  rte.o(.data)
    RTE_u16ComToSecDebug1                    0x200001c6   Data           2  rte.o(.data)
    RTE_u16ComToSecDebug2                    0x200001c8   Data           2  rte.o(.data)
    RTE_u16I2cStatus0                        0x200001ca   Data           2  rte.o(.data)
    RTE_ModelNumber                          0x200001cc   Data          11  rte.o(.data)
    RTE_u8I2cExpTxCnt                        0x200001d7   Data           1  rte.o(.data)
    RTE_u8I2cExpRxCnt                        0x200001d8   Data           1  rte.o(.data)
    RTE_u8I2cRxCnt                           0x200001d9   Data           1  rte.o(.data)
    RTE_u8I2cPECErrCmd                       0x200001da   Data           1  rte.o(.data)
    RTE_u8I2cTxLen                           0x200001db   Data           1  rte.o(.data)
    RTE_u8I2cPEC                             0x200001dc   Data           1  rte.o(.data)
    RTE_u8InputLedState                      0x200001dd   Data           1  rte.o(.data)
    CALI_uStatus                             0x200001de   Data           1  rte.o(.data)
    FANCTRL_uFanStatus12                     0x200001df   Data           1  rte.o(.data)
    FANCTRL_uFanStatus34                     0x200001e0   Data           1  rte.o(.data)
    PMBUS_uOperation                         0x200001e1   Data           1  rte.o(.data)
    PMBUS_uSysStatu0                         0x200001e2   Data           2  rte.o(.data)
    PMBUS_uSysStatu1                         0x200001e4   Data           2  rte.o(.data)
    PMBUS_uDataUpdStatus                     0x200001e6   Data           2  rte.o(.data)
    PMBUS_uDataUpdStatus1                    0x200001e8   Data           2  rte.o(.data)
    RTE_uFanDuty                             0x200001ea   Data           4  rte.o(.data)
    RTE_u16ComDebug                          0x200001ee   Data           8  rte.o(.data)
    RTE_u8AcLineStatus                       0x200001f6   Data           1  rte.o(.data)
    RTE_u16VoutIntVsbFast                    0x200001f8   Data           2  rte.o(.data)
    RTE_u16VoutExtVsbFast                    0x200001fa   Data           2  rte.o(.data)
    RTE_u16IoutVsbFast                       0x200001fc   Data           2  rte.o(.data)
    RTE_u8TempTestIndex                      0x200001fe   Data           1  rte.o(.data)
    RTE_bIsV1OcpTest                         0x200001ff   Data           1  rte.o(.data)
    RTE_bIsVsbOcpTest                        0x20000200   Data           1  rte.o(.data)
    RTE_uFunctionCtrl                        0x20000202   Data           2  rte.o(.data)
    RTE_s16OtWarning                         0x20000204   Data           2  rte.o(.data)
    RTE_uCaliV1Amp                           0x20000206   Data           2  rte.o(.data)
    RTE_uCaliV1Ofs                           0x20000208   Data           2  rte.o(.data)
    RTE_uCaliI1Amp                           0x2000020a   Data           2  rte.o(.data)
    RTE_uCaliI1Ofs                           0x2000020c   Data           2  rte.o(.data)
    ADC_Test                                 0x20000212   Data           2  schm.o(.data)
    mg_u8I2cResetFlag                        0x20000214   Data           2  i2c.o(.data)
    mg_u16SclLowCnt                          0x20000216   Data           4  i2c.o(.data)
    mg_u16SdaLowCnt                          0x2000021a   Data           4  i2c.o(.data)
    mg_u32AsynchPrediv                       0x20000220   Data           4  rtc.o(.data)
    mg_u32SynchPrediv                        0x20000224   Data           4  rtc.o(.data)
    mg_uBlcBoxPageWrDis                      0x2000028e   Data           1  pmbus.o(.data)
    BLABOX_bWriteEEPROMProcessing            0x20000324   Data           1  blabox.o(.data)
    RTE_au8Uart1TxBuf                        0x200003ac   Data         128  rte.o(.bss)
    RTE_au8Uart1RxBuf                        0x2000042c   Data         128  rte.o(.bss)
    RTE_au8Uart2TxBuf                        0x200004ac   Data         128  rte.o(.bss)
    RTE_au8Uart2RxBuf                        0x2000052c   Data         128  rte.o(.bss)
    RTE_sAdjustData                          0x200005ac   Data          12  rte.o(.bss)
    RTE_Pri                                  0x200005b8   Data          40  rte.o(.bss)
    RTE_Sec                                  0x200005e0   Data          30  rte.o(.bss)
    RTE_CALI_sData                           0x200005fe   Data         128  rte.o(.bss)
    RTE_au8MfrData                           0x2000067e   Data         102  rte.o(.bss)
    RTE_au8I2cTxBuf                          0x200006e4   Data         256  rte.o(.bss)
    RTE_au8I2cRxBuf                          0x200007e4   Data         256  rte.o(.bss)
    CALI_sPara                               0x200008e4   Data          14  rte.o(.bss)
    PMBUS_tData                              0x200008f4   Data         184  rte.o(.bss)
    PMBUS_tStatus                            0x200009ac   Data          16  rte.o(.bss)
    PMBUS_tStatusOld                         0x200009bc   Data          16  rte.o(.bss)
    PSMI_tStatus                             0x200009cc   Data          10  rte.o(.bss)
    PSMI_tStatusOld                          0x200009d6   Data          10  rte.o(.bss)
    RTE_s16TempTest                          0x200009e0   Data          10  rte.o(.bss)
    mg_au8UartTxBuf                          0x20000b34   Data         256  uartprt.o(.bss)
    mg_au8BlackBoxData                       0x20000e54   Data         235  pmbus.o(.bss)
    mg_au8BBVinUVPData                       0x20000f3f   Data         235  pmbus.o(.bss)
    mg_sVsbMonitor                           0x20001046   Data          26  monctrl.o(.bss)
    mg_sV1Monitor                            0x20001060   Data          24  monctrl.o(.bss)
    __initial_sp                             0x20001558   Data           0  startup_stm32f0xx.o(STACK)



==============================================================================

Memory Map of the image

  Image Entry point : 0x080040d1

  Load Region LR_IROM1 (Base: 0x08004000, Size: 0x0000e178, Max: 0x0000f7ff, ABSOLUTE, COMPRESSED[0x0000df48])

    Execution Region ER_IROM1 (Exec base: 0x08004000, Load base: 0x08004000, Size: 0x0000df00, Max: 0x0000f7ff, ABSOLUTE)

    Exec Addr    Load Addr    Size         Type   Attr      Idx    E Section Name        Object

    0x08004000   0x08004000   0x00000010   Data   RO         3589    .ARM.__AT_0x08004000  flash.o
    0x08004010   0x08004010   0x000000c0   Data   RO         3303    RESET               startup_stm32f0xx.o
    0x080040d0   0x080040d0   0x00000000   Code   RO         6629  * .ARM.Collect$$$$00000000  mc_p.l(entry.o)
    0x080040d0   0x080040d0   0x00000004   Code   RO         6642    .ARM.Collect$$$$00000001  mc_p.l(entry2.o)
    0x080040d4   0x080040d4   0x00000004   Code   RO         6645    .ARM.Collect$$$$00000004  mc_p.l(entry5.o)
    0x080040d8   0x080040d8   0x00000000   Code   RO         6647    .ARM.Collect$$$$00000008  mc_p.l(entry7b.o)
    0x080040d8   0x080040d8   0x00000000   Code   RO         6649    .ARM.Collect$$$$0000000A  mc_p.l(entry8b.o)
    0x080040d8   0x080040d8   0x00000008   Code   RO         6650    .ARM.Collect$$$$0000000B  mc_p.l(entry9a.o)
    0x080040e0   0x080040e0   0x00000000   Code   RO         6652    .ARM.Collect$$$$0000000D  mc_p.l(entry10a.o)
    0x080040e0   0x080040e0   0x00000000   Code   RO         6654    .ARM.Collect$$$$0000000F  mc_p.l(entry11a.o)
    0x080040e0   0x080040e0   0x00000004   Code   RO         6643    .ARM.Collect$$$$00002712  mc_p.l(entry2.o)
    0x080040e4   0x080040e4   0x0000001c   Code   RO         3304    .text               startup_stm32f0xx.o
    0x08004100   0x08004100   0x0000002c   Code   RO         6632    .text               mc_p.l(uidiv.o)
    0x0800412c   0x0800412c   0x00000028   Code   RO         6634    .text               mc_p.l(idiv.o)
    0x08004154   0x08004154   0x00000024   Code   RO         6659    .text               mc_p.l(init.o)
    0x08004178   0x08004178   0x00000056   Code   RO         6669    .text               mc_p.l(__dczerorl2.o)
    0x080041ce   0x080041ce   0x00000018   Code   RO            8    i.ADC_ChannelConfig  stdperiphdriver.o
    0x080041e6   0x080041e6   0x00000018   Code   RO           12    i.ADC_Cmd           stdperiphdriver.o
    0x080041fe   0x080041fe   0x00000018   Code   RO           14    i.ADC_DMACmd        stdperiphdriver.o
    0x08004216   0x08004216   0x00000010   Code   RO           15    i.ADC_DMARequestModeConfig  stdperiphdriver.o
    0x08004226   0x08004226   0x00000002   PAD
    0x08004228   0x08004228   0x00000020   Code   RO           16    i.ADC_DeInit        stdperiphdriver.o
    0x08004248   0x08004248   0x0000003c   Code   RO           18    i.ADC_GetCalibrationFactor  stdperiphdriver.o
    0x08004284   0x08004284   0x00000030   Code   RO           20    i.ADC_GetFlagStatus  stdperiphdriver.o
    0x080042b4   0x080042b4   0x0000002c   Code   RO           23    i.ADC_Init          stdperiphdriver.o
    0x080042e0   0x080042e0   0x0000000a   Code   RO           26    i.ADC_StartOfConversion  stdperiphdriver.o
    0x080042ea   0x080042ea   0x00000010   Code   RO           28    i.ADC_StructInit    stdperiphdriver.o
    0x080042fa   0x080042fa   0x00000002   PAD
    0x080042fc   0x080042fc   0x000000e8   Code   RO         3311    i.ADC_vInit         adc.o
    0x080043e4   0x080043e4   0x00000010   Code   RO         3312    i.ADC_vReadRaw      adc.o
    0x080043f4   0x080043f4   0x00000010   Code   RO         6380    i.BLABOX_Rte_Read_B_R_AC_POWER_FAULT  blabox.o
    0x08004404   0x08004404   0x00000010   Code   RO         6381    i.BLABOX_Rte_Read_B_R_AUX_MODE  blabox.o
    0x08004414   0x08004414   0x0000001e   Code   RO         6382    i.BLABOX_Rte_Read_B_R_FAN_WARN  blabox.o
    0x08004432   0x08004432   0x00000002   PAD
    0x08004434   0x08004434   0x00000034   Code   RO         6383    i.BLABOX_Rte_Read_B_R_IOUT_OC_FAULT  blabox.o
    0x08004468   0x08004468   0x00000010   Code   RO         6384    i.BLABOX_Rte_Read_B_R_IOUT_WARN  blabox.o
    0x08004478   0x08004478   0x00000028   Code   RO         6385    i.BLABOX_Rte_Read_B_R_LOSS_INPUT  blabox.o
    0x080044a0   0x080044a0   0x00000030   Code   RO         6386    i.BLABOX_Rte_Read_B_R_OT_FAULT  blabox.o
    0x080044d0   0x080044d0   0x00000014   Code   RO         6387    i.BLABOX_Rte_Read_B_R_PSON_FAULT  blabox.o
    0x080044e4   0x080044e4   0x00000010   Code   RO         6388    i.BLABOX_Rte_Read_B_R_TEMP_WARN  blabox.o
    0x080044f4   0x080044f4   0x0000004a   Code   RO         6389    i.BLABOX_SCFG_Read  blabox.o
    0x0800453e   0x0800453e   0x00000042   Code   RO         6390    i.BLABOX_SCFG_Write  blabox.o
    0x08004580   0x08004580   0x0000000c   Code   RO         6391    i.BLABOX_SCFG_u16Getlenght  blabox.o
    0x0800458c   0x0800458c   0x0000000a   Code   RO         6392    i.BLABOX_SCFG_u32GetLastRecordId  blabox.o
    0x08004596   0x08004596   0x00000002   PAD
    0x08004598   0x08004598   0x0000005c   Code   RO         6393    i.BLABOX_vClearFault  blabox.o
    0x080045f4   0x080045f4   0x000000e0   Code   RO         6394    i.BLABOX_vClearWarning  blabox.o
    0x080046d4   0x080046d4   0x00000028   Code   RO         6395    i.BLABOX_vCountRealTimeClockDataSystemBlackbox  blabox.o
    0x080046fc   0x080046fc   0x000000a8   Code   RO         6398    i.BLABOX_vInit      blabox.o
    0x080047a4   0x080047a4   0x0000004c   Code   RO         6400    i.BLABOX_vMFR_CheckACBlackBox  blabox.o
    0x080047f0   0x080047f0   0x0000004c   Code   RO         6401    i.BLABOX_vMFR_CheckPSONBlackBox  blabox.o
    0x0800483c   0x0800483c   0x0000005c   Code   RO         6402    i.BLABOX_vMFR_ClearBlackBox  blabox.o
    0x08004898   0x08004898   0x0000004c   Code   RO         6403    i.BLABOX_vMFR_SystemBlackBox  blabox.o
    0x080048e4   0x080048e4   0x00000090   Code   RO         6404    i.BLABOX_vMFR_TimePSONBlackBox  blabox.o
    0x08004974   0x08004974   0x000006b8   Code   RO         6405    i.BLABOX_vProcessBlackbox  blabox.o
    0x0800502c   0x0800502c   0x00000020   Code   RO         6406    i.BLABOX_vSetEnableBlackbox  blabox.o
    0x0800504c   0x0800504c   0x0000000c   Code   RO         6407    i.BLABOX_vSetRealTimeClockDataSystemBlackbox  blabox.o
    0x08005058   0x08005058   0x00000048   Code   RO         3367    i.BUFFER_SCB_vInit  buffer.o
    0x080050a0   0x080050a0   0x0000007c   Code   RO         3368    i.BUFFER_SCB_vLoop10msTask  buffer.o
    0x0800511c   0x0800511c   0x00000078   Code   RO         3369    i.BUFFER_SCB_vLoop1msTask  buffer.o
    0x08005194   0x08005194   0x00000094   Code   RO         3370    i.BUFFER_SCFG_vReadValue  buffer.o
    0x08005228   0x08005228   0x00000020   Code   RO         3371    i.BUFFER_u16GetMean10ms  buffer.o
    0x08005248   0x08005248   0x00000020   Code   RO         3372    i.BUFFER_u16GetMean1ms  buffer.o
    0x08005268   0x08005268   0x00000010   Code   RO         4290    i.CALI_Rte_Read_B_R_VIN_OK  cali.o
    0x08005278   0x08005278   0x0000000c   Code   RO         4291    i.CALI_Rte_Read_R_u1610mAIoutAvg  cali.o
    0x08005284   0x08005284   0x00000010   Code   RO         4292    i.CALI_SCFG_u8GetCrc8  cali.o
    0x08005294   0x08005294   0x000000b4   Code   RO         4293    i.CALI_vCalcCaliPara  cali.o
    0x08005348   0x08005348   0x0000008c   Code   RO         4294    i.CALI_vCaliFast    cali.o
    0x080053d4   0x080053d4   0x000000c4   Code   RO         4295    i.CALI_vCaliHandler  cali.o
    0x08005498   0x08005498   0x0000005c   Code   RO         4296    i.CALI_vCalibrateIShare  cali.o
    0x080054f4   0x080054f4   0x00000008   Code   RO         4298    i.CALI_vCalibrateV1  cali.o
    0x080054fc   0x080054fc   0x0000006c   Code   RO         4300    i.CALI_vInit        cali.o
    0x08005568   0x08005568   0x00000008   Code   RO         3439    i.CLOCK_vInit       clock.o
    0x08005570   0x08005570   0x00000020   Code   RO         4127    i.CRC_u16GetCrc16   crc.o
    0x08005590   0x08005590   0x00000014   Code   RO         4128    i.CRC_u8GetCrc8     crc.o
    0x080055a4   0x080055a4   0x00000002   Code   RO         4130    i.CRC_vInit         crc.o
    0x080055a6   0x080055a6   0x00000002   PAD
    0x080055a8   0x080055a8   0x0000001c   Code   RO          139    i.DMA_Cmd           stdperiphdriver.o
    0x080055c4   0x080055c4   0x00000164   Code   RO          140    i.DMA_DeInit        stdperiphdriver.o
    0x08005728   0x08005728   0x00000040   Code   RO          145    i.DMA_Init          stdperiphdriver.o
    0x08005768   0x08005768   0x000002d8   Code   RO         3499    i.EEPROM_u32ReadBuffer  eeprom.o
    0x08005a40   0x08005a40   0x0000007c   Code   RO         3500    i.EEPROM_u32WaitEepromStandbyState  eeprom.o
    0x08005abc   0x08005abc   0x00000258   Code   RO         3501    i.EEPROM_u32WriteBuffer  eeprom.o
    0x08005d14   0x08005d14   0x00000144   Code   RO         3502    i.EEPROM_u32WritePage  eeprom.o
    0x08005e58   0x08005e58   0x0000000c   Code   RO         3504    i.EEPROM_vInit      eeprom.o
    0x08005e64   0x08005e64   0x00000010   Code   RO         5480    i.FANCTRL_RTE_Read_B_R_SYS_UNLOCK  fanctrl.o
    0x08005e74   0x08005e74   0x000001aa   Code   RO         5481    i.FANCTRL_Rte_Read_R_s32TempDiff  fanctrl.o
    0x0800601e   0x0800601e   0x0000000a   Code   RO         5482    i.FANCTRL_SCFG_s16ReadAmbTemp  fanctrl.o
    0x08006028   0x08006028   0x0000000a   Code   RO         5483    i.FANCTRL_SCFG_s16ReadOutTemp  fanctrl.o
    0x08006032   0x08006032   0x0000000a   Code   RO         5484    i.FANCTRL_SCFG_s16ReadPriLlc  fanctrl.o
    0x0800603c   0x0800603c   0x0000000a   Code   RO         5485    i.FANCTRL_SCFG_s16ReadPriPfc  fanctrl.o
    0x08006046   0x08006046   0x0000000a   Code   RO         5486    i.FANCTRL_SCFG_s16ReadSecRecdiode  fanctrl.o
    0x08006050   0x08006050   0x00000020   Code   RO         5491    i.FANCTRL_u16ReadFanCtrlDuty  fanctrl.o
    0x08006070   0x08006070   0x00000020   Code   RO         5492    i.FANCTRL_u16ReadFanSpeed  fanctrl.o
    0x08006090   0x08006090   0x00000020   Code   RO         5493    i.FANCTRL_u8ReadFanBitFail  fanctrl.o
    0x080060b0   0x080060b0   0x00000020   Code   RO         5495    i.FANCTRL_u8ReadFanBitWarn  fanctrl.o
    0x080060d0   0x080060d0   0x0000002c   Code   RO         5496    i.FANCTRL_u8WriteFanBitFail  fanctrl.o
    0x080060fc   0x080060fc   0x0000002c   Code   RO         5497    i.FANCTRL_u8WriteFanBitWarn  fanctrl.o
    0x08006128   0x08006128   0x00000088   Code   RO         5499    i.FANCTRL_vFanCtrl  fanctrl.o
    0x080061b0   0x080061b0   0x00000170   Code   RO         5500    i.FANCTRL_vFanSpeedCalc  fanctrl.o
    0x08006320   0x08006320   0x000000a0   Code   RO         5501    i.FANCTRL_vInit     fanctrl.o
    0x080063c0   0x080063c0   0x0000000c   Code   RO         5502    i.FANCTRL_vSetFanBlockTest  fanctrl.o
    0x080063cc   0x080063cc   0x00000014   Code   RO         5503    i.FANCTRL_vSysSetFanCtrlDuty  fanctrl.o
    0x080063e0   0x080063e0   0x0000004c   Code   RO          159    i.FLASH_ErasePage   stdperiphdriver.o
    0x0800642c   0x0800642c   0x0000003c   Code   RO          162    i.FLASH_GetStatus   stdperiphdriver.o
    0x08006468   0x08006468   0x00000014   Code   RO          164    i.FLASH_Lock        stdperiphdriver.o
    0x0800647c   0x0800647c   0x00000044   Code   RO          183    i.FLASH_ProgramHalfWord  stdperiphdriver.o
    0x080064c0   0x080064c0   0x0000006c   Code   RO          184    i.FLASH_ProgramWord  stdperiphdriver.o
    0x0800652c   0x0800652c   0x00000024   Code   RO          186    i.FLASH_Unlock      stdperiphdriver.o
    0x08006550   0x08006550   0x00000028   Code   RO          187    i.FLASH_WaitForLastOperation  stdperiphdriver.o
    0x08006578   0x08006578   0x00000010   Code   RO         3576    i.FLASH_u32BootloaderFwVer  flash.o
    0x08006588   0x08006588   0x00000018   Code   RO         3577    i.FLASH_u32ReadWordFlash  flash.o
    0x080065a0   0x080065a0   0x00000022   Code   RO         3580    i.FLASH_u8ErasePageFlash  flash.o
    0x080065c2   0x080065c2   0x00000028   Code   RO         3582    i.FLASH_u8WriteHalfWordFlash  flash.o
    0x080065ea   0x080065ea   0x00000028   Code   RO         3583    i.FLASH_u8WriteWordFlash  flash.o
    0x08006612   0x08006612   0x00000002   Code   RO         3585    i.FLASH_vInit       flash.o
    0x08006614   0x08006614   0x00000040   Code   RO         3586    i.FLASH_vRemapVectorTable  flash.o
    0x08006654   0x08006654   0x00000090   Code   RO          189    i.GPIO_Init         stdperiphdriver.o
    0x080066e4   0x080066e4   0x00000044   Code   RO          190    i.GPIO_PinAFConfig  stdperiphdriver.o
    0x08006728   0x08006728   0x00000014   Code   RO          193    i.GPIO_ReadInputDataBit  stdperiphdriver.o
    0x0800673c   0x0800673c   0x0000001c   Code   RO         4922    i.HWIO_RTE_Write_B_P_54V_FAULT_ACTIVE  hwio.o
    0x08006758   0x08006758   0x0000001c   Code   RO         4923    i.HWIO_RTE_Write_B_P_I2C_ADDRESS0  hwio.o
    0x08006774   0x08006774   0x0000001c   Code   RO         4924    i.HWIO_RTE_Write_B_P_I2C_ADDRESS1  hwio.o
    0x08006790   0x08006790   0x0000001c   Code   RO         4925    i.HWIO_RTE_Write_B_P_PSON_ACTIVE  hwio.o
    0x080067ac   0x080067ac   0x00000020   Code   RO         4926    i.HWIO_RTE_Write_B_P_VINOK_ENA  hwio.o
    0x080067cc   0x080067cc   0x0000001c   Code   RO         4927    i.HWIO_RTE_Write_B_P_VIN_OK_ACTIVE  hwio.o
    0x080067e8   0x080067e8   0x00000010   Code   RO         4928    i.HWIO_Rte_Read_B_R_COM_VIN_OK  hwio.o
    0x080067f8   0x080067f8   0x00000010   Code   RO         4929    i.HWIO_Rte_Read_B_R_OUTPUT_OK  hwio.o
    0x08006808   0x08006808   0x00000010   Code   RO         4930    i.HWIO_Rte_Read_B_R_SMBALLERT_ST  hwio.o
    0x08006818   0x08006818   0x00000010   Code   RO         4931    i.HWIO_Rte_Read_B_R_V1_ON  hwio.o
    0x08006828   0x08006828   0x00000010   Code   RO         4932    i.HWIO_Rte_Read_B_R_VIN_LINE_LOW  hwio.o
    0x08006838   0x08006838   0x00000010   Code   RO         4933    i.HWIO_Rte_Read_B_R_VIN_OK  hwio.o
    0x08006848   0x08006848   0x00000002   Code   RO         4934    i.HWIO_vCheckBootLoaderExistFlg  hwio.o
    0x0800684a   0x0800684a   0x00000002   Code   RO         4937    i.HWIO_vInit        hwio.o
    0x0800684c   0x0800684c   0x0000021c   Code   RO         4938    i.HWIO_vReadGpioPort  hwio.o
    0x08006a68   0x08006a68   0x00000160   Code   RO         4939    i.HWIO_vSetGpioPort  hwio.o
    0x08006bc8   0x08006bc8   0x000002b0   Code   RO         4601    i.I2C1_IRQHandler   i2cprt.o
    0x08006e78   0x08006e78   0x00000010   Code   RO         4602    i.I2CPRT_RTE_Read_B_R_PEC_ERR_FLG  i2cprt.o
    0x08006e88   0x08006e88   0x00000020   Code   RO         4603    i.I2CPRT_RTE_Write_B_P_CMD_WAIT_FLG  i2cprt.o
    0x08006ea8   0x08006ea8   0x00000020   Code   RO         4604    i.I2CPRT_RTE_Write_B_P_PEC_CHANGE_FLG  i2cprt.o
    0x08006ec8   0x08006ec8   0x00000020   Code   RO         4605    i.I2CPRT_RTE_Write_B_P_PEC_ERR_FLG  i2cprt.o
    0x08006ee8   0x08006ee8   0x0000000c   Code   RO         4606    i.I2CPRT_Rte_Read_R_u8I2cPEC  i2cprt.o
    0x08006ef4   0x08006ef4   0x0000000c   Code   RO         4607    i.I2CPRT_Rte_Read_R_u8I2cRxCnt  i2cprt.o
    0x08006f00   0x08006f00   0x0000000c   Code   RO         4608    i.I2CPRT_Rte_Write_P_u8I2cExpRxCnt  i2cprt.o
    0x08006f0c   0x08006f0c   0x0000000c   Code   RO         4609    i.I2CPRT_Rte_Write_P_u8I2cExpTxCnt  i2cprt.o
    0x08006f18   0x08006f18   0x0000000c   Code   RO         4610    i.I2CPRT_Rte_Write_P_u8I2cPEC  i2cprt.o
    0x08006f24   0x08006f24   0x0000000c   Code   RO         4611    i.I2CPRT_Rte_Write_P_u8I2cRxCnt  i2cprt.o
    0x08006f30   0x08006f30   0x0000000c   Code   RO         4612    i.I2CPRT_Rte_Write_P_u8I2cTxLen  i2cprt.o
    0x08006f3c   0x08006f3c   0x0000000c   Code   RO         4613    i.I2CPRT_Rte_Write_P_u8PecErrCmd  i2cprt.o
    0x08006f48   0x08006f48   0x0000000c   Code   RO         4614    i.I2CPRT_Rte_Write_P_u8TxBuf  i2cprt.o
    0x08006f54   0x08006f54   0x00000010   Code   RO         4615    i.I2CPRT_SCFG_eGetRxSTOPFlg  i2cprt.o
    0x08006f64   0x08006f64   0x00000010   Code   RO         4616    i.I2CPRT_SCFG_u8GetCrc8  i2cprt.o
    0x08006f74   0x08006f74   0x00000074   Code   RO         4618    i.I2CPRT_vInit      i2cprt.o
    0x08006fe8   0x08006fe8   0x00000124   Code   RO         4619    i.I2CPRT_vProcessReceiveData  i2cprt.o
    0x0800710c   0x0800710c   0x00000004   Code   RO          206    i.I2C_ClearFlag     stdperiphdriver.o
    0x08007110   0x08007110   0x00000004   Code   RO          207    i.I2C_ClearITPendingBit  stdperiphdriver.o
    0x08007114   0x08007114   0x00000018   Code   RO          209    i.I2C_Cmd           stdperiphdriver.o
    0x0800712c   0x0800712c   0x0000001c   Code   RO          215    i.I2C_GenerateSTART  stdperiphdriver.o
    0x08007148   0x08007148   0x0000001c   Code   RO          218    i.I2C_GetFlagStatus  stdperiphdriver.o
    0x08007164   0x08007164   0x0000001e   Code   RO          221    i.I2C_GetTransferDirection  stdperiphdriver.o
    0x08007182   0x08007182   0x00000014   Code   RO          222    i.I2C_ITConfig      stdperiphdriver.o
    0x08007196   0x08007196   0x00000002   PAD
    0x08007198   0x08007198   0x0000006c   Code   RO          224    i.I2C_Init          stdperiphdriver.o
    0x08007204   0x08007204   0x00000008   Code   RO          230    i.I2C_ReceiveData   stdperiphdriver.o
    0x0800720c   0x0800720c   0x00000004   Code   RO          233    i.I2C_SendData      stdperiphdriver.o
    0x08007210   0x08007210   0x00000014   Code   RO          236    i.I2C_SoftwareResetCmd  stdperiphdriver.o
    0x08007224   0x08007224   0x0000001c   Code   RO          238    i.I2C_StretchClockCmd  stdperiphdriver.o
    0x08007240   0x08007240   0x0000002c   Code   RO          242    i.I2C_TransferHandling  stdperiphdriver.o
    0x0800726c   0x0800726c   0x00000018   Code   RO         4177    i.I2C_vClearTimeoutCnt  i2c.o
    0x08007284   0x08007284   0x00000034   Code   RO         4179    i.I2C_vDisableNvicInt  i2c.o
    0x080072b8   0x080072b8   0x00000034   Code   RO         4180    i.I2C_vEnableNvicInt  i2c.o
    0x080072ec   0x080072ec   0x00000118   Code   RO         4181    i.I2C_vI2cTimeOutHandler  i2c.o
    0x08007404   0x08007404   0x0000006c   Code   RO         4182    i.I2C_vInit         i2c.o
    0x08007470   0x08007470   0x00000010   Code   RO         6270    i.INTCOM_RTE_Read_B_R_VIN_OK_ACTIVE  intcom.o
    0x08007480   0x08007480   0x00000010   Code   RO         5637    i.INTCOM_RTE_Read_B_R_VIN_OK_PRI  monctrl.o
    0x08007490   0x08007490   0x0000001c   Code   RO         6271    i.INTCOM_RTE_Write_B_P_COMMS_FAULT  intcom.o
    0x080074ac   0x080074ac   0x0000001c   Code   RO         6272    i.INTCOM_RTE_Write_B_P_PRI_NO_RX_PKG  intcom.o
    0x080074c8   0x080074c8   0x00000020   Code   RO         6273    i.INTCOM_RTE_Write_B_P_PRI_RX_PKG  intcom.o
    0x080074e8   0x080074e8   0x00000018   Code   RO         6274    i.INTCOM_RTE_Write_B_P_PRI_UART_FAIL  intcom.o
    0x08007500   0x08007500   0x0000001c   Code   RO         6275    i.INTCOM_RTE_Write_B_P_SEC_NO_RX_PKG  intcom.o
    0x0800751c   0x0800751c   0x00000018   Code   RO         6276    i.INTCOM_RTE_Write_B_P_SEC_UART_FAIL  intcom.o
    0x08007534   0x08007534   0x0000001c   Code   RO         6277    i.INTCOM_Rte_Write_B_P_V1_OCP  intcom.o
    0x08007550   0x08007550   0x0000000c   Code   RO         6278    i.INTCOM_Rte_Write_P_u16FanCnt  intcom.o
    0x0800755c   0x0800755c   0x000003d4   Code   RO         6279    i.INTCOM_vCom1RxData  intcom.o
    0x08007930   0x08007930   0x00000104   Code   RO         6280    i.INTCOM_vCom1TxData  intcom.o
    0x08007a34   0x08007a34   0x0000036c   Code   RO         6281    i.INTCOM_vCom2RxData  intcom.o
    0x08007da0   0x08007da0   0x000001ac   Code   RO         6282    i.INTCOM_vCom2TxData  intcom.o
    0x08007f4c   0x08007f4c   0x00000018   Code   RO         6284    i.INTCOM_vInit      intcom.o
    0x08007f64   0x08007f64   0x00000070   Code   RO         6285    i.INTCOM_vTmOutMon  intcom.o
    0x08007fd4   0x08007fd4   0x00000010   Code   RO         6106    i.LEDCTRL_RTE_Read_B_R_Aux_Mode  ledctrl.o
    0x08007fe4   0x08007fe4   0x00000010   Code   RO         6107    i.LEDCTRL_RTE_Read_B_R_V1_OCP  ledctrl.o
    0x08007ff4   0x08007ff4   0x00000010   Code   RO         6108    i.LEDCTRL_RTE_Read_B_R_V1_OVP  ledctrl.o
    0x08008004   0x08008004   0x00000010   Code   RO         6109    i.LEDCTRL_RTE_Read_B_R_V1_UVP  ledctrl.o
    0x08008014   0x08008014   0x00000010   Code   RO         6110    i.LEDCTRL_RTE_Read_B_R_VIN_OK  ledctrl.o
    0x08008024   0x08008024   0x0000000c   Code   RO         6111    i.LEDCTRL_SCFG_vSetInREDOff  ledctrl.o
    0x08008030   0x08008030   0x0000000c   Code   RO         6112    i.LEDCTRL_SCFG_vSetInREDOn  ledctrl.o
    0x0800803c   0x0800803c   0x00000002   Code   RO         6114    i.LEDCTRL_vInit     ledctrl.o
    0x0800803e   0x0800803e   0x00000002   PAD
    0x08008040   0x08008040   0x00000188   Code   RO         6115    i.LEDCTRL_vLedControl  ledctrl.o
    0x080081c8   0x080081c8   0x00000010   Code   RO         4747    i.MEM_SCFG_u8GetCrc8  mem.o
    0x080081d8   0x080081d8   0x00000014   Code   RO         4748    i.MEM_SCFG_vReadMem  mem.o
    0x080081ec   0x080081ec   0x00000014   Code   RO         4749    i.MEM_SCFG_vWriteMem  mem.o
    0x08008200   0x08008200   0x00000010   Code   RO         4751    i.MEM_u16Getlenght  mem.o
    0x08008210   0x08008210   0x00000014   Code   RO         4753    i.MEM_vInit         mem.o
    0x08008224   0x08008224   0x0000002a   Code   RO         4754    i.MEM_vRead2EEPORM  mem.o
    0x0800824e   0x0800824e   0x00000002   PAD
    0x08008250   0x08008250   0x00000024   Code   RO         4756    i.MEM_vReadFromMem  mem.o
    0x08008274   0x08008274   0x00000058   Code   RO         4757    i.MEM_vSaveData     mem.o
    0x080082cc   0x080082cc   0x0000002a   Code   RO         4758    i.MEM_vWrite2EEPORM  mem.o
    0x080082f6   0x080082f6   0x00000002   PAD
    0x080082f8   0x080082f8   0x00000020   Code   RO         4760    i.MEM_vWriteToMem   mem.o
    0x08008318   0x08008318   0x00000010   Code   RO         5638    i.MONCTRL_RTE_Read_B_R_NO_VIN  monctrl.o
    0x08008328   0x08008328   0x00000010   Code   RO         5639    i.MONCTRL_RTE_Read_B_R_REMOTE_ON  monctrl.o
    0x08008338   0x08008338   0x00000010   Code   RO         5640    i.MONCTRL_RTE_Read_B_R_VIN_OV  monctrl.o
    0x08008348   0x08008348   0x00000010   Code   RO         5641    i.MONCTRL_RTE_Read_B_R_VIN_UV  monctrl.o
    0x08008358   0x08008358   0x00000010   Code   RO         5642    i.MONCTRL_RTE_Read_B_R_VSB_MONI_EN  monctrl.o
    0x08008368   0x08008368   0x00000010   Code   RO         5643    i.MONCTRL_RTE_Read_B_R_VSB_ON_DIO  monctrl.o
    0x08008378   0x08008378   0x0000000c   Code   RO         5644    i.MONCTRL_RTE_Read_R_vVsbLinear  monctrl.o
    0x08008384   0x08008384   0x00000020   Code   RO         5645    i.MONCTRL_RTE_Write_B_P_ANY_NTC_FAULT  monctrl.o
    0x080083a4   0x080083a4   0x0000001c   Code   RO         5646    i.MONCTRL_RTE_Write_B_P_CLEAR_LATCH_FAULT  monctrl.o
    0x080083c0   0x080083c0   0x0000001c   Code   RO         5647    i.MONCTRL_RTE_Write_B_P_NO_VIN  monctrl.o
    0x080083dc   0x080083dc   0x0000001c   Code   RO         5648    i.MONCTRL_RTE_Write_B_P_REMOTE_ON  monctrl.o
    0x080083f8   0x080083f8   0x00000020   Code   RO         5649    i.MONCTRL_RTE_Write_B_P_VIN_OCW  monctrl.o
    0x08008418   0x08008418   0x0000001c   Code   RO         5650    i.MONCTRL_RTE_Write_B_P_VIN_OK  monctrl.o
    0x08008434   0x08008434   0x00000020   Code   RO         5651    i.MONCTRL_RTE_Write_B_P_VIN_OV  monctrl.o
    0x08008454   0x08008454   0x00000020   Code   RO         5652    i.MONCTRL_RTE_Write_B_P_VIN_UV  monctrl.o
    0x08008474   0x08008474   0x00000020   Code   RO         5653    i.MONCTRL_RTE_Write_B_P_VIN_UVW  monctrl.o
    0x08008494   0x08008494   0x00000018   Code   RO         5654    i.MONCTRL_RTE_Write_B_P_VSB_LATCH  monctrl.o
    0x080084ac   0x080084ac   0x0000001c   Code   RO         5655    i.MONCTRL_RTE_Write_B_P_VSB_OCP  monctrl.o
    0x080084c8   0x080084c8   0x0000001c   Code   RO         5656    i.MONCTRL_RTE_Write_B_P_VSB_OCW  monctrl.o
    0x080084e4   0x080084e4   0x0000001c   Code   RO         5657    i.MONCTRL_RTE_Write_B_P_VSB_OVP  monctrl.o
    0x08008500   0x08008500   0x0000001c   Code   RO         5658    i.MONCTRL_RTE_Write_B_P_VSB_OVW  monctrl.o
    0x0800851c   0x0800851c   0x0000001c   Code   RO         5659    i.MONCTRL_RTE_Write_B_P_VSB_UVP  monctrl.o
    0x08008538   0x08008538   0x0000001c   Code   RO         5660    i.MONCTRL_RTE_Write_B_P_VSB_UVW  monctrl.o
    0x08008554   0x08008554   0x0000000c   Code   RO         5661    i.MONCTRL_RTE_Write_P_u8AcLineStatus  monctrl.o
    0x08008560   0x08008560   0x00000020   Code   RO         4761    i.MONCTRL_Rte_Write_B_P_AC_OFFSET_SAVEED  mem.o
    0x08008580   0x08008580   0x00000020   Code   RO         5662    i.MONCTRL_Rte_Write_B_P_STB_MODE  monctrl.o
    0x080085a0   0x080085a0   0x0000000c   Code   RO         4762    i.MONCTRL_Rte_Write_P_u16TrimV1Gain  mem.o
    0x080085ac   0x080085ac   0x0000000c   Code   RO         4763    i.MONCTRL_Rte_Write_P_u16TrimV1GainAct  mem.o
    0x080085b8   0x080085b8   0x0000000c   Code   RO         4764    i.MONCTRL_Rte_Write_P_u16TrimVsbGain  mem.o
    0x080085c4   0x080085c4   0x00000090   Code   RO         5663    i.MONCTRL_vAxuModeDetect  monctrl.o
    0x08008654   0x08008654   0x00000198   Code   RO         5664    i.MONCTRL_vCheckStatusReset  monctrl.o
    0x080087ec   0x080087ec   0x00000068   Code   RO         5665    i.MONCTRL_vCheckVsbOvp  monctrl.o
    0x08008854   0x08008854   0x00000020   Code   RO         5668    i.MONCTRL_vInit     monctrl.o
    0x08008874   0x08008874   0x00000140   Code   RO         5669    i.MONCTRL_vUpdateStatus  monctrl.o
    0x080089b4   0x080089b4   0x00000374   Code   RO         5670    i.MONCTRL_vVin      monctrl.o
    0x08008d28   0x08008d28   0x000002f0   Code   RO         5671    i.MONCTRL_vVsbOutput  monctrl.o
    0x08009018   0x08009018   0x00000070   Code   RO          253    i.NVIC_Init         stdperiphdriver.o
    0x08009088   0x08009088   0x00000010   Code   RO         5233    i.PMBUS_Rte_Read_B_R_V1_OCP  pmbus.o
    0x08009098   0x08009098   0x0000000c   Code   RO         5234    i.PMBUS_Rte_Read_R_u8PMBusCmd  pmbus.o
    0x080090a4   0x080090a4   0x0000000c   Code   RO         5235    i.PMBUS_Rte_Write_P_u8TempTestIndex  pmbus.o
    0x080090b0   0x080090b0   0x0000000c   Code   RO         5236    i.PMBUS_SCFG_u16ReadFanSpeed  pmbus.o
    0x080090bc   0x080090bc   0x0000000c   Code   RO         5237    i.PMBUS_SCFG_u8ReadFanBitFail  pmbus.o
    0x080090c8   0x080090c8   0x0000000c   Code   RO         5238    i.PMBUS_SCFG_u8ReadFanBitWarn  pmbus.o
    0x080090d4   0x080090d4   0x0000000c   Code   RO         5239    i.PMBUS_SCFG_vSetBootMode  pmbus.o
    0x080090e0   0x080090e0   0x0000000c   Code   RO         5240    i.PMBUS_SCFG_vSetFanBlockTest  pmbus.o
    0x080090ec   0x080090ec   0x00000010   Code   RO         5241    i.PMBUS_SCFG_vSysSetFanCtrlDuty  pmbus.o
    0x080090fc   0x080090fc   0x00000170   Code   RO         5243    i.PMBUS_vCheckBootMode  pmbus.o
    0x0800926c   0x0800926c   0x00000014   Code   RO         5244    i.PMBUS_vClearAllFault  pmbus.o
    0x08009280   0x08009280   0x0000003c   Code   RO         5246    i.PMBUS_vClearPowerOffFault  pmbus.o
    0x080092bc   0x080092bc   0x00000350   Code   RO         5247    i.PMBUS_vCmdCheck   pmbus.o
    0x0800960c   0x0800960c   0x000001b8   Code   RO         5248    i.PMBUS_vCopyDebugData  pmbus.o
    0x080097c4   0x080097c4   0x00000002   Code   RO         5249    i.PMBUS_vCopyPecAndOringStatus  pmbus.o
    0x080097c6   0x080097c6   0x00000002   PAD
    0x080097c8   0x080097c8   0x0000063c   Code   RO         5250    i.PMBUS_vCopySensorData  pmbus.o
    0x08009e04   0x08009e04   0x0000040c   Code   RO         5251    i.PMBUS_vCopyStatusData  pmbus.o
    0x0800a210   0x0800a210   0x000000f4   Code   RO         5253    i.PMBUS_vInit       pmbus.o
    0x0800a304   0x0800a304   0x0000006c   Code   RO         5254    i.PMBUS_vSaveBlackBoxData2Buff  pmbus.o
    0x0800a370   0x0800a370   0x00000024   Code   RO         5255    i.PMBUS_vSaveBlackBoxVinData2Buff  pmbus.o
    0x0800a394   0x0800a394   0x00000f48   Code   RO         5256    i.PMBUS_vSendData   pmbus.o
    0x0800b2dc   0x0800b2dc   0x00000030   Code   RO         3728    i.PORT_u8ReadGpioPin  port.o
    0x0800b30c   0x0800b30c   0x000000e8   Code   RO         3730    i.PORT_vInit        port.o
    0x0800b3f4   0x0800b3f4   0x0000009c   Code   RO         3731    i.PORT_vSetGpioMode  port.o
    0x0800b490   0x0800b490   0x0000003c   Code   RO         3732    i.PORT_vSetGpioPin  port.o
    0x0800b4cc   0x0800b4cc   0x00000028   Code   RO         3733    i.PORT_vSetGpioPinToggle  port.o
    0x0800b4f4   0x0800b4f4   0x00000010   Code   RO         5852    i.PSUCTRL_RTE_Read_B_R_AUX_MODE  psuctrl.o
    0x0800b504   0x0800b504   0x00000010   Code   RO         5853    i.PSUCTRL_RTE_Read_B_R_REMOTE_ON  psuctrl.o
    0x0800b514   0x0800b514   0x00000010   Code   RO         5854    i.PSUCTRL_RTE_Read_B_R_STA_VSB_ON  psuctrl.o
    0x0800b524   0x0800b524   0x00000010   Code   RO         5855    i.PSUCTRL_RTE_Read_B_R_V1_FAULT_ACTIVE  psuctrl.o
    0x0800b534   0x0800b534   0x00000010   Code   RO         5856    i.PSUCTRL_RTE_Read_B_R_V1_OCP  psuctrl.o
    0x0800b544   0x0800b544   0x00000010   Code   RO         5857    i.PSUCTRL_RTE_Read_B_R_V1_OVP  psuctrl.o
    0x0800b554   0x0800b554   0x00000010   Code   RO         5858    i.PSUCTRL_RTE_Read_B_R_V1_UVP  psuctrl.o
    0x0800b564   0x0800b564   0x00000010   Code   RO         5859    i.PSUCTRL_RTE_Read_B_R_VIN_OK  psuctrl.o
    0x0800b574   0x0800b574   0x00000010   Code   RO         5860    i.PSUCTRL_RTE_Read_B_R_VSB_OCP  psuctrl.o
    0x0800b584   0x0800b584   0x00000010   Code   RO         5861    i.PSUCTRL_Rte_Read_B_R_TEMP_ANY_OTP  psuctrl.o
    0x0800b594   0x0800b594   0x0000001c   Code   RO         5862    i.PSUCTRL_Rte_Write_B_P_OUTPUT_OK  psuctrl.o
    0x0800b5b0   0x0800b5b0   0x00000020   Code   RO         5863    i.PSUCTRL_Rte_Write_B_P_STA_V1_ON  psuctrl.o
    0x0800b5d0   0x0800b5d0   0x0000001c   Code   RO         5864    i.PSUCTRL_Rte_Write_B_P_STA_VSB_ON  psuctrl.o
    0x0800b5ec   0x0800b5ec   0x00000018   Code   RO         5865    i.PSUCTRL_Rte_Write_B_P_TURN_ON_MAIN  psuctrl.o
    0x0800b604   0x0800b604   0x0000001c   Code   RO         5866    i.PSUCTRL_Rte_Write_B_P_V1_MONI_EN  psuctrl.o
    0x0800b620   0x0800b620   0x0000001c   Code   RO         5867    i.PSUCTRL_Rte_Write_B_P_VSB_MONI_EN  psuctrl.o
    0x0800b63c   0x0800b63c   0x0000000c   Code   RO         5868    i.PSUCTRL_Rte_Write_P_u16TrimV1Gain  psuctrl.o
    0x0800b648   0x0800b648   0x0000000c   Code   RO         5869    i.PSUCTRL_Rte_Write_P_u16TrimV1GainAct  psuctrl.o
    0x0800b654   0x0800b654   0x0000000c   Code   RO         5870    i.PSUCTRL_Rte_Write_P_u16TrimV1GainOvp  psuctrl.o
    0x0800b660   0x0800b660   0x0000000e   Code   RO         5871    i.PSUCTRL_SCFG_vVsbOvpDuty  psuctrl.o
    0x0800b66e   0x0800b66e   0x00000002   PAD
    0x0800b670   0x0800b670   0x00000040   Code   RO         5872    i.PSUCTRL_SCFG_vVsbSetOn  psuctrl.o
    0x0800b6b0   0x0800b6b0   0x00000014   Code   RO         5874    i.PSUCTRL_vInit     psuctrl.o
    0x0800b6c4   0x0800b6c4   0x00000214   Code   RO         5875    i.PSUCTRL_vTrim     psuctrl.o
    0x0800b8d8   0x0800b8d8   0x000001f0   Code   RO         5876    i.PSUCTRL_vV1Out    psuctrl.o
    0x0800bac8   0x0800bac8   0x000001e4   Code   RO         5877    i.PSUCTRL_vVsbOut   psuctrl.o
    0x0800bcac   0x0800bcac   0x00000160   Code   RO         3797    i.PWM_vInit         pwm.o
    0x0800be0c   0x0800be0c   0x0000008c   Code   RO         3798    i.PWM_vPwmDutyUpdate  pwm.o
    0x0800be98   0x0800be98   0x00000028   Code   RO          255    i.PWR_BackupAccessCmd  stdperiphdriver.o
    0x0800bec0   0x0800bec0   0x00000020   Code   RO          266    i.RCC_AHBPeriphClockCmd  stdperiphdriver.o
    0x0800bee0   0x0800bee0   0x00000020   Code   RO          268    i.RCC_APB1PeriphClockCmd  stdperiphdriver.o
    0x0800bf00   0x0800bf00   0x00000020   Code   RO          270    i.RCC_APB2PeriphClockCmd  stdperiphdriver.o
    0x0800bf20   0x0800bf20   0x00000020   Code   RO          271    i.RCC_APB2PeriphResetCmd  stdperiphdriver.o
    0x0800bf40   0x0800bf40   0x00000028   Code   RO          274    i.RCC_BackupResetCmd  stdperiphdriver.o
    0x0800bf68   0x0800bf68   0x0000024c   Code   RO          280    i.RCC_GetClocksFreq  stdperiphdriver.o
    0x0800c1b4   0x0800c1b4   0x00000028   Code   RO          300    i.RCC_RTCCLKCmd     stdperiphdriver.o
    0x0800c1dc   0x0800c1dc   0x00000010   Code   RO          301    i.RCC_RTCCLKConfig  stdperiphdriver.o
    0x0800c1ec   0x0800c1ec   0x00000058   Code   RO          319    i.RTC_EnterInitMode  stdperiphdriver.o
    0x0800c244   0x0800c244   0x00000014   Code   RO          320    i.RTC_ExitInitMode  stdperiphdriver.o
    0x0800c258   0x0800c258   0x00000058   Code   RO          333    i.RTC_Init          stdperiphdriver.o
    0x0800c2b0   0x0800c2b0   0x0000006c   Code   RO          354    i.RTC_WaitForSynchro  stdperiphdriver.o
    0x0800c31c   0x0800c31c   0x00000070   Code   RO         4252    i.RTC_vInit         rtc.o
    0x0800c38c   0x0800c38c   0x00000180   Code   RO         3844    i.RTE_vInit         rte.o
    0x0800c50c   0x0800c50c   0x00000104   Code   RO         3869    i.SCHM_vInit        schm.o
    0x0800c610   0x0800c610   0x00000018   Code   RO         3870    i.SCHM_vSchmIdleLoop  schm.o
    0x0800c628   0x0800c628   0x0000026c   Code   RO         3871    i.SCHM_vSchmRoutine  schm.o
    0x0800c894   0x0800c894   0x0000001c   Code   RO          396    i.SYSCFG_MemoryRemapConfig  stdperiphdriver.o
    0x0800c8b0   0x0800c8b0   0x00000018   Code   RO         5137    i.S_DAM_SCFG_bRead  s_dam.o
    0x0800c8c8   0x0800c8c8   0x00000018   Code   RO         5138    i.S_DAM_SCFG_bWrite  s_dam.o
    0x0800c8e0   0x0800c8e0   0x00000020   Code   RO         5139    i.S_DAM_SCFG_u32Crc  s_dam.o
    0x0800c900   0x0800c900   0x0000011c   Code   RO         5140    i.S_DAM_bRead       s_dam.o
    0x0800ca1c   0x0800ca1c   0x0000012c   Code   RO         5142    i.S_DAM_bWrite      s_dam.o
    0x0800cb48   0x0800cb48   0x00000010   Code   RO         5144    i.S_DAM_mgU32HeaderIndex  s_dam.o
    0x0800cb58   0x0800cb58   0x00000054   Code   RO         5146    i.S_DAM_u32GetLastRecordId  s_dam.o
    0x0800cbac   0x0800cbac   0x0000007c   Code   RO         3441    i.SystemInit        clock.o
    0x0800cc28   0x0800cc28   0x00000018   Code   RO         6007    i.TEMPCTRL_Rte_Read_R_u161mVLlcNtc  tempctrl.o
    0x0800cc40   0x0800cc40   0x00000018   Code   RO         6008    i.TEMPCTRL_Rte_Read_R_u161mVPfcNtc  tempctrl.o
    0x0800cc58   0x0800cc58   0x00000018   Code   RO         6009    i.TEMPCTRL_Rte_Read_R_u161mVSrNtc  tempctrl.o
    0x0800cc70   0x0800cc70   0x00000014   Code   RO         6010    i.TEMPCTRL_SCFG_u16ReadInletNtc  tempctrl.o
    0x0800cc84   0x0800cc84   0x00000014   Code   RO         6011    i.TEMPCTRL_SCFG_u16ReadOutletNtc  tempctrl.o
    0x0800cc98   0x0800cc98   0x00000014   Code   RO         6012    i.TEMPCTRL_s16ReadTempValue  tempctrl.o
    0x0800ccac   0x0800ccac   0x00000010   Code   RO         6013    i.TEMPCTRL_u16ReadAdcAvgValue  tempctrl.o
    0x0800ccbc   0x0800ccbc   0x000000b8   Code   RO         6015    i.TEMPCTRL_vInit    tempctrl.o
    0x0800cd74   0x0800cd74   0x00000270   Code   RO         6016    i.TEMPCTRL_vLookUpNtcTemperature  tempctrl.o
    0x0800cfe4   0x0800cfe4   0x00000294   Code   RO         6017    i.TEMPCTRL_vNtcTempMonitor  tempctrl.o
    0x0800d278   0x0800d278   0x00000164   Code   RO         6018    i.TEMPCTRL_vNtcVoltAverage  tempctrl.o
    0x0800d3dc   0x0800d3dc   0x00000010   Code   RO         6183    i.TIMECATL_SCFG_u8GetCrc8  timectrl.o
    0x0800d3ec   0x0800d3ec   0x00000014   Code   RO         6184    i.TIMECATL_SCFG_vWriteMem  timectrl.o
    0x0800d400   0x0800d400   0x00000020   Code   RO         6185    i.TIMECTRL_RTE_Write_B_P_PSO_LAST_UPDTING  timectrl.o
    0x0800d420   0x0800d420   0x00000020   Code   RO         6186    i.TIMECTRL_RTE_Write_B_P_PSO_TOTAL_UPDTING  timectrl.o
    0x0800d440   0x0800d440   0x0000000c   Code   RO         6187    i.TIMECTRL_RTE_Write_P_u32PosTotal  timectrl.o
    0x0800d44c   0x0800d44c   0x0000000c   Code   RO         6188    i.TIMECTRL_RTE_Write_P_vDataCopy  timectrl.o
    0x0800d458   0x0800d458   0x00000020   Code   RO         6189    i.TIMECTRL_RTE_Write_P_vWrBitHoursUpd  timectrl.o
    0x0800d478   0x0800d478   0x0000000c   Code   RO         6190    i.TIMECTRL_RTE_Write_P_vWrHoursUsed  timectrl.o
    0x0800d484   0x0800d484   0x00000144   Code   RO         6192    i.TIMECTRL_vInit    timectrl.o
    0x0800d5c8   0x0800d5c8   0x00000210   Code   RO         6193    i.TIMECTRL_vSaveHoursUsed  timectrl.o
    0x0800d7d8   0x0800d7d8   0x00000020   Code   RO         4012    i.TIMER_u8GetUpdateFlg  timer.o
    0x0800d7f8   0x0800d7f8   0x00000020   Code   RO         4013    i.TIMER_vClearUpdateFlg  timer.o
    0x0800d818   0x0800d818   0x000000c8   Code   RO         4015    i.TIMER_vInit       timer.o
    0x0800d8e0   0x0800d8e0   0x00000006   Code   RO          408    i.TIM_ClearFlag     stdperiphdriver.o
    0x0800d8e6   0x0800d8e6   0x00000002   PAD
    0x0800d8e8   0x0800d8e8   0x0000001c   Code   RO          414    i.TIM_Cmd           stdperiphdriver.o
    0x0800d904   0x0800d904   0x00000022   Code   RO          416    i.TIM_CtrlPWMOutputs  stdperiphdriver.o
    0x0800d926   0x0800d926   0x00000004   Code   RO          428    i.TIM_GenerateEvent  stdperiphdriver.o
    0x0800d92a   0x0800d92a   0x00000014   Code   RO          434    i.TIM_GetFlagStatus  stdperiphdriver.o
    0x0800d93e   0x0800d93e   0x00000014   Code   RO          439    i.TIM_ITConfig      stdperiphdriver.o
    0x0800d952   0x0800d952   0x00000002   PAD
    0x0800d954   0x0800d954   0x00000094   Code   RO          443    i.TIM_OC1Init       stdperiphdriver.o
    0x0800d9e8   0x0800d9e8   0x00000018   Code   RO          446    i.TIM_OC1PreloadConfig  stdperiphdriver.o
    0x0800da00   0x0800da00   0x000000ac   Code   RO          448    i.TIM_OC2Init       stdperiphdriver.o
    0x0800daac   0x0800daac   0x00000018   Code   RO          451    i.TIM_OC2PreloadConfig  stdperiphdriver.o
    0x0800dac4   0x0800dac4   0x00000098   Code   RO          453    i.TIM_OC3Init       stdperiphdriver.o
    0x0800db5c   0x0800db5c   0x00000018   Code   RO          456    i.TIM_OC3PreloadConfig  stdperiphdriver.o
    0x0800db74   0x0800db74   0x00000070   Code   RO          458    i.TIM_OC4Init       stdperiphdriver.o
    0x0800dbe4   0x0800dbe4   0x00000018   Code   RO          460    i.TIM_OC4PreloadConfig  stdperiphdriver.o
    0x0800dbfc   0x0800dbfc   0x00000004   Code   RO          477    i.TIM_SetCompare1   stdperiphdriver.o
    0x0800dc00   0x0800dc00   0x00000004   Code   RO          478    i.TIM_SetCompare2   stdperiphdriver.o
    0x0800dc04   0x0800dc04   0x00000004   Code   RO          479    i.TIM_SetCompare3   stdperiphdriver.o
    0x0800dc08   0x0800dc08   0x00000004   Code   RO          480    i.TIM_SetCompare4   stdperiphdriver.o
    0x0800dc0c   0x0800dc0c   0x0000007c   Code   RO          487    i.TIM_TimeBaseInit  stdperiphdriver.o
    0x0800dc88   0x0800dc88   0x00000178   Code   RO         5041    i.UARTPRT_vHandleRxData  uartprt.o
    0x0800de00   0x0800de00   0x0000024c   Code   RO         5042    i.UARTPRT_vHandleTxData  uartprt.o
    0x0800e04c   0x0800e04c   0x0000019c   Code   RO         5043    i.UARTPRT_vInit     uartprt.o
    0x0800e1e8   0x0800e1e8   0x00000020   Code   RO         5044    i.UARTPRT_vSetBootMode  uartprt.o
    0x0800e208   0x0800e208   0x000001c8   Code   RO         5045    i.UARTPRT_vTmOutMon  uartprt.o
    0x0800e3d0   0x0800e3d0   0x000001b4   Code   RO         5046    i.UARTPRT_vTxData   uartprt.o
    0x0800e584   0x0800e584   0x0000016c   Code   RO         5047    i.UARTPRT_vUsartIrqHandler  uartprt.o
    0x0800e6f0   0x0800e6f0   0x00000014   Code   RO         4518    i.UART_u16UartReadBaudrate  uart.o
    0x0800e704   0x0800e704   0x00000018   Code   RO         4520    i.UART_u8UartReadRxReg  uart.o
    0x0800e71c   0x0800e71c   0x00000018   Code   RO         4521    i.UART_u8UartReadTxEmptyFlg  uart.o
    0x0800e734   0x0800e734   0x0000012c   Code   RO         4523    i.UART_vInit        uart.o
    0x0800e860   0x0800e860   0x00000014   Code   RO         4524    i.UART_vUartWriteTxReg  uart.o
    0x0800e874   0x0800e874   0x0000002c   Code   RO         4525    i.USART1_IRQHandler  uart.o
    0x0800e8a0   0x0800e8a0   0x0000002c   Code   RO         4526    i.USART2_IRQHandler  uart.o
    0x0800e8cc   0x0800e8cc   0x00000012   Code   RO          495    i.USART_ClearITPendingBit  stdperiphdriver.o
    0x0800e8de   0x0800e8de   0x00000018   Code   RO          498    i.USART_Cmd         stdperiphdriver.o
    0x0800e8f6   0x0800e8f6   0x0000004e   Code   RO          507    i.USART_GetITStatus  stdperiphdriver.o
    0x0800e944   0x0800e944   0x00000042   Code   RO          509    i.USART_ITConfig    stdperiphdriver.o
    0x0800e986   0x0800e986   0x00000002   PAD
    0x0800e988   0x0800e988   0x000000f8   Code   RO          510    i.USART_Init        stdperiphdriver.o
    0x0800ea80   0x0800ea80   0x0000001c   Code   RO         3413    i.__ARM_common_switch8  buffer.o
    0x0800ea9c   0x0800ea9c   0x0000000e   Code   RO         6663    i.__scatterload_copy  mc_p.l(handlers.o)
    0x0800eaaa   0x0800eaaa   0x00000002   Code   RO         6664    i.__scatterload_null  mc_p.l(handlers.o)
    0x0800eaac   0x0800eaac   0x0000000e   Code   RO         6665    i.__scatterload_zeroinit  mc_p.l(handlers.o)
    0x0800eaba   0x0800eaba   0x0000001e   Code   RO         3685    i.main              main.o
    0x0800ead8   0x0800ead8   0x000002a0   Code   RO         5504    i.mg_AdjSpeed       fanctrl.o
    0x0800ed78   0x0800ed78   0x00000054   Code   RO         4301    i.mg_s32GetCalibratedData  cali.o
    0x0800edcc   0x0800edcc   0x000001cc   Code   RO         5258    i.mg_u16TxLinearDatFormatDiv128  pmbus.o
    0x0800ef98   0x0800ef98   0x0000007c   Code   RO         5259    i.mg_u16TxLinearDatFormatDiv128_PSMI  pmbus.o
    0x0800f014   0x0800f014   0x0000003e   Code   RO         5260    i.mg_u16TxLinearDatFormatDiv128_PSMI_TEMP  pmbus.o
    0x0800f052   0x0800f052   0x00000004   Code   RO         3505    i.mg_u32TimeoutUserCallback  eeprom.o
    0x0800f056   0x0800f056   0x00000002   PAD
    0x0800f058   0x0800f058   0x00000078   Code   RO         6412    i.mg_u8IsMaxCountEventFaultAndWarning  blabox.o
    0x0800f0d0   0x0800f0d0   0x00000040   Code   RO         4302    i.mg_vCalcV1CurrentGain  cali.o
    0x0800f110   0x0800f110   0x00000034   Code   RO         4303    i.mg_vCaliDefaultIinAc  cali.o
    0x0800f144   0x0800f144   0x00000034   Code   RO         4304    i.mg_vCaliDefaultIoutV1  cali.o
    0x0800f178   0x0800f178   0x00000034   Code   RO         4305    i.mg_vCaliDefaultIoutVsb  cali.o
    0x0800f1ac   0x0800f1ac   0x00000034   Code   RO         4306    i.mg_vCaliDefaultPinAc  cali.o
    0x0800f1e0   0x0800f1e0   0x00000034   Code   RO         4307    i.mg_vCaliDefaultV1IShare  cali.o
    0x0800f214   0x0800f214   0x00000030   Code   RO         4308    i.mg_vCaliDefaultVinAc  cali.o
    0x0800f244   0x0800f244   0x00000034   Code   RO         4309    i.mg_vCaliDefaultVoutV1  cali.o
    0x0800f278   0x0800f278   0x00000034   Code   RO         4310    i.mg_vCaliDefaultVoutVsb  cali.o
    0x0800f2ac   0x0800f2ac   0x00000024   Code   RO         4311    i.mg_vCalibrateIShave  cali.o
    0x0800f2d0   0x0800f2d0   0x000000b4   Code   RO         4312    i.mg_vCalibrateIin  cali.o
    0x0800f384   0x0800f384   0x00000002   Code   RO         4313    i.mg_vCalibratePin  cali.o
    0x0800f386   0x0800f386   0x00000002   PAD
    0x0800f388   0x0800f388   0x00000080   Code   RO         4314    i.mg_vCalibrateV1   cali.o
    0x0800f408   0x0800f408   0x00000024   Code   RO         4315    i.mg_vCalibrateV1Sense  cali.o
    0x0800f42c   0x0800f42c   0x00000030   Code   RO         4316    i.mg_vCalibrateVin  cali.o
    0x0800f45c   0x0800f45c   0x00000088   Code   RO         4317    i.mg_vCalibrateVsb  cali.o
    0x0800f4e4   0x0800f4e4   0x00000354   Code   RO         5261    i.mg_vClearFaultBit  pmbus.o
    0x0800f838   0x0800f838   0x000001bc   Code   RO         4318    i.mg_vCopyCaliData  cali.o
    0x0800f9f4   0x0800f9f4   0x0000000e   Code   RO         4319    i.mg_vCopyDataToBuf  cali.o
    0x0800fa02   0x0800fa02   0x00000002   PAD
    0x0800fa04   0x0800fa04   0x0000009c   Code   RO         4183    i.mg_vI2cReset      i2c.o
    0x0800faa0   0x0800faa0   0x00000080   Code   RO         3442    i.mg_vIntOscSel     clock.o
    0x0800fb20   0x0800fb20   0x0000001c   Code   RO         6413    i.mg_vMfrGetACCntBlackBox  blabox.o
    0x0800fb3c   0x0800fb3c   0x0000001c   Code   RO         6414    i.mg_vMfrGetPSONCntBlackBox  blabox.o
    0x0800fb58   0x0800fb58   0x00000022   Code   RO         6415    i.mg_vMfrGetTimePSONBlackBox  blabox.o
    0x0800fb7a   0x0800fb7a   0x00000002   PAD
    0x0800fb7c   0x0800fb7c   0x00000050   Code   RO         6416    i.mg_vMfrSetACCntBlackBox  blabox.o
    0x0800fbcc   0x0800fbcc   0x00000050   Code   RO         6417    i.mg_vMfrSetPSONCntBlackBox  blabox.o
    0x0800fc1c   0x0800fc1c   0x0000019c   Code   RO         6418    i.mg_vPushEventFaultBlackBox  blabox.o
    0x0800fdb8   0x0800fdb8   0x00000064   Code   RO         4765    i.mg_vReadAcOffset  mem.o
    0x0800fe1c   0x0800fe1c   0x000000d8   Code   RO         4320    i.mg_vReadCalibPara  cali.o
    0x0800fef4   0x0800fef4   0x00000094   Code   RO         4321    i.mg_vReadEepData   cali.o
    0x0800ff88   0x0800ff88   0x00000214   Code   RO         4766    i.mg_vReadFwRevData  mem.o
    0x0801019c   0x0801019c   0x00000034   Code   RO         6419    i.mg_vReadMfrBlaboxHeader  blabox.o
    0x080101d0   0x080101d0   0x00000064   Code   RO         4767    i.mg_vReadMfrInfoData  mem.o
    0x08010234   0x08010234   0x000000d0   Code   RO         4768    i.mg_vReadTrimData  mem.o
    0x08010304   0x08010304   0x00000080   Code   RO         4769    i.mg_vSaveAcOffset  mem.o
    0x08010384   0x08010384   0x000000dc   Code   RO         4322    i.mg_vSaveCaliData  cali.o
    0x08010460   0x08010460   0x00000208   Code   RO         4770    i.mg_vSaveFwRevData  mem.o
    0x08010668   0x08010668   0x0000007c   Code   RO         4771    i.mg_vSaveMfrInfoData  mem.o
    0x080106e4   0x080106e4   0x000000e0   Code   RO         4772    i.mg_vSaveTrimData  mem.o
    0x080107c4   0x080107c4   0x00000098   Code   RO         6420    i.mg_vSetCountEventFaultAndWarning  blabox.o
    0x0801085c   0x0801085c   0x00000030   Code   RO         4323    i.mg_vSetDefaultCaliData  cali.o
    0x0801088c   0x0801088c   0x0000001a   Code   RO         5267    i.u16Ones           pmbus.o
    0x080108a6   0x080108a6   0x00000002   PAD
    0x080108a8   0x080108a8   0x00000874   Code   RO         5268    i.vPMBus_HandleData  pmbus.o
    0x0801111c   0x0801111c   0x00000020   Data   RO         3313    .constdata          adc.o
    0x0801113c   0x0801113c   0x00000294   Data   RO         3734    .constdata          port.o
    0x080113d0   0x080113d0   0x00000030   Data   RO         3799    .constdata          pwm.o
    0x08011400   0x08011400   0x0000001c   Data   RO         4016    .constdata          timer.o
    0x0801141c   0x0801141c   0x00000300   Data   RO         4131    .constdata          crc.o
    0x0801171c   0x0801171c   0x00000090   Data   RO         4184    .constdata          i2c.o
    0x080117ac   0x080117ac   0x00000060   Data   RO         4527    .constdata          uart.o
    0x0801180c   0x0801180c   0x00000030   Data   RO         4774    .constdata          mem.o
    0x0801183c   0x0801183c   0x00000002   Data   RO         5049    .constdata          uartprt.o
    0x0801183e   0x0801183e   0x00000002   PAD
    0x08011840   0x08011840   0x00000024   Data   RO         5149    .constdata          s_dam.o
    0x08011864   0x08011864   0x0000040c   Data   RO         5270    .constdata          pmbus.o
    0x08011c70   0x08011c70   0x00000270   Data   RO         6021    .constdata          tempctrl.o
    0x08011ee0   0x08011ee0   0x00000020   Data   RO         6661    Region$$Table       anon$$obj.o


    Execution Region RW_IRAM1 (Exec base: 0x20000000, Load base: 0x08011f00, Size: 0x000000c0, Max: 0x000000c0, ABSOLUTE)

    Exec Addr    Load Addr    Size         Type   Attr      Idx    E Section Name        Object

    0x20000000        -       0x000000c0   Zero   RW         3590    .ARM.__AT_0x20000000  flash.o


    Execution Region RW_IRAM2 (Exec base: 0x200000c4, Load base: 0x08011f00, Size: 0x00001494, Max: 0x00003f3c, ABSOLUTE, COMPRESSED[0x00000048])

    Exec Addr    Load Addr    Size         Type   Attr      Idx    E Section Name        Object

    0x200000c4   COMPRESSED   0x00000010   Data   RW          548    .data               stdperiphdriver.o
    0x200000d4   COMPRESSED   0x00000040   Data   RW         3314    .data               adc.o
    0x20000114   COMPRESSED   0x00000008   Data   RW         3374    .data               buffer.o
    0x2000011c   COMPRESSED   0x0000000a   Data   RW         3506    .data               eeprom.o
    0x20000126   COMPRESSED   0x00000002   PAD
    0x20000128   COMPRESSED   0x00000008   Data   RW         3591    .data               flash.o
    0x20000130   COMPRESSED   0x00000001   Data   RW         3735    .data               port.o
    0x20000131   COMPRESSED   0x00000003   PAD
    0x20000134   COMPRESSED   0x000000da   Data   RW         3846    .data               rte.o
    0x2000020e   COMPRESSED   0x00000006   Data   RW         3872    .data               schm.o
    0x20000214   COMPRESSED   0x0000000a   Data   RW         4185    .data               i2c.o
    0x2000021e   COMPRESSED   0x00000002   PAD
    0x20000220   COMPRESSED   0x00000008   Data   RW         4253    .data               rtc.o
    0x20000228   COMPRESSED   0x00000004   Data   RW         4325    .data               cali.o
    0x2000022c   COMPRESSED   0x00000008   Data   RW         4528    .data               uart.o
    0x20000234   COMPRESSED   0x00000007   Data   RW         4624    .data               i2cprt.o
    0x2000023b   COMPRESSED   0x00000008   Data   RW         4775    .data               mem.o
    0x20000243   COMPRESSED   0x00000001   PAD
    0x20000244   COMPRESSED   0x0000000c   Data   RW         4940    .data               hwio.o
    0x20000250   COMPRESSED   0x00000010   Data   RW         5050    .data               uartprt.o
    0x20000260   COMPRESSED   0x00000022   Data   RW         5150    .data               s_dam.o
    0x20000282   COMPRESSED   0x00000014   Data   RW         5271    .data               pmbus.o
    0x20000296   COMPRESSED   0x00000010   Data   RW         5507    .data               fanctrl.o
    0x200002a6   COMPRESSED   0x0000002a   Data   RW         5673    .data               monctrl.o
    0x200002d0   COMPRESSED   0x00000014   Data   RW         5878    .data               psuctrl.o
    0x200002e4   COMPRESSED   0x00000008   Data   RW         6022    .data               tempctrl.o
    0x200002ec   COMPRESSED   0x00000002   Data   RW         6116    .data               ledctrl.o
    0x200002ee   COMPRESSED   0x00000002   PAD
    0x200002f0   COMPRESSED   0x00000014   Data   RW         6194    .data               timectrl.o
    0x20000304   COMPRESSED   0x00000008   Data   RW         6286    .data               intcom.o
    0x2000030c   COMPRESSED   0x0000002e   Data   RW         6423    .data               blabox.o
    0x2000033a   COMPRESSED   0x00000002   PAD
    0x2000033c        -       0x0000006e   Zero   RW         3373    .bss                buffer.o
    0x200003aa   COMPRESSED   0x00000002   PAD
    0x200003ac        -       0x0000063e   Zero   RW         3845    .bss                rte.o
    0x200009ea        -       0x0000000a   Zero   RW         4324    .bss                cali.o
    0x200009f4        -       0x00000118   Zero   RW         4773    .bss                mem.o
    0x20000b0c        -       0x00000228   Zero   RW         5048    .bss                uartprt.o
    0x20000d34        -       0x000002f6   Zero   RW         5269    .bss                pmbus.o
    0x2000102a        -       0x0000001c   Zero   RW         5505    .bss                fanctrl.o
    0x20001046        -       0x00000032   Zero   RW         5672    .bss                monctrl.o
    0x20001078        -       0x000000aa   Zero   RW         6020    .bss                tempctrl.o
    0x20001122        -       0x00000030   Zero   RW         6421    .bss                blabox.o
    0x20001152   COMPRESSED   0x00000006   PAD
    0x20001158        -       0x00000400   Zero   RW         3301    STACK               startup_stm32f0xx.o



  Load Region LR$$.ARM.__AT_0x08000000 (Base: 0x08000000, Size: 0x00000008, Max: 0x00000008, ABSOLUTE)

    Execution Region ER$$.ARM.__AT_0x08000000 (Exec base: 0x08000000, Load base: 0x08000000, Size: 0x00000008, Max: 0x00000008, ABSOLUTE, UNINIT)

    Exec Addr    Load Addr    Size         Type   Attr      Idx    E Section Name        Object

    0x08000000   0x08000000   0x00000008   Data   RW         3588    .ARM.__AT_0x08000000  flash.o


==============================================================================

Image component sizes


      Code (inc. data)   RO Data    RW Data    ZI Data      Debug   Object Name

       248         28         32         64          0      51048   adc.o
      4154        428          0         46         48      29063   blabox.o
       556         92          0          8        110       5259   buffer.o
      2984        356          0          4         10      22205   cali.o
       260         24          0          0          0       1295   clock.o
        54         12        768          0          0       2163   crc.o
      1792         56          0         10          0       5651   eeprom.o
      2076        166          0         16         28      15664   fanctrl.o
       220         20         16         16        192       4697   flash.o
      1164        122          0         12          0      13222   hwio.o
       672         50        144         10          0       5559   i2c.o
      1348        162          0          7          0      15933   i2cprt.o
      2900        200          0          8          0      25606   intcom.o
       498         62          0          2          0       7518   ledctrl.o
        30          0          0          0          0       1521   main.o
      2336        156         48          8        280      23398   mem.o
      3276        374          0         42         50      28471   monctrl.o
     12474        764       1036         20        758      53113   pmbus.o
       536         28        660          1          0       4430   port.o
      1974        246          0         20          0      22039   psuctrl.o
       492         10         48          0          0       2881   pwm.o
       112         14          0          8          0        815   rtc.o
       384        156          0        218       1598      37577   rte.o
       764         36         36         34          0      11469   s_dam.o
       904         56          0          6          0      13580   schm.o
        28          8        192          0       1024        616   startup_stm32f0xx.o
      4398        366          0         16          0     366736   stdperiphdriver.o
      1972        148        624          8        170      12198   tempctrl.o
      1020         96          0         20          0       8899   timectrl.o
       264         12         28          0          0       2621   timer.o
       476         64         96          8          0       5118   uart.o
      2664         94          2         16        552      10946   uartprt.o

    ----------------------------------------------------------------------
     53068       4406       3764        640       4828     811311   Object Totals
         0          0         32          0          0          0   (incl. Generated)
        38          0          2         12          8          0   (incl. Padding)

    ----------------------------------------------------------------------

      Code (inc. data)   RO Data    RW Data    ZI Data      Debug   Library Member Name

        86          0          0          0          0          0   __dczerorl2.o
         0          0          0          0          0          0   entry.o
         0          0          0          0          0          0   entry10a.o
         0          0          0          0          0          0   entry11a.o
         8          4          0          0          0          0   entry2.o
         4          0          0          0          0          0   entry5.o
         0          0          0          0          0          0   entry7b.o
         0          0          0          0          0          0   entry8b.o
         8          4          0          0          0          0   entry9a.o
        30          0          0          0          0          0   handlers.o
        40          0          0          0          0         72   idiv.o
        36          8          0          0          0         68   init.o
        44          0          0          0          0         72   uidiv.o

    ----------------------------------------------------------------------
       256         16          0          0          0        212   Library Totals
         0          0          0          0          0          0   (incl. Padding)

    ----------------------------------------------------------------------

      Code (inc. data)   RO Data    RW Data    ZI Data      Debug   Library Name

       256         16          0          0          0        212   mc_p.l

    ----------------------------------------------------------------------
       256         16          0          0          0        212   Library Totals

    ----------------------------------------------------------------------

==============================================================================


      Code (inc. data)   RO Data    RW Data    ZI Data      Debug   

     53324       4422       3764        640       4828     793531   Grand Totals
     53324       4422       3764         80       4828     793531   ELF Image Totals (compressed)
     53324       4422       3764         80          0          0   ROM Totals

==============================================================================

    Total RO  Size (Code + RO Data)                57088 (  55.75kB)
    Total RW  Size (RW Data + ZI Data)              5468 (   5.34kB)
    Total ROM Size (Code + RO Data + RW Data)      57168 (  55.83kB)

==============================================================================

